(lp0
(dp1
S'difficult'
p2
I0
sS'pose'
p3
S'Unspecified'
p4
sS'name'
p5
S'rest8th'
p6
sS'bbox'
p7
(lp8
I1945
aI293
aI1967
aI332
asS'truncated'
p9
I0
sa(dp10
g2
I0
sg3
g4
sg5
S'noteheadBlack'
p11
sg7
(lp12
I1904
aI278
aI1927
aI301
asg9
I0
sa(dp13
g2
I0
sg3
g4
sg5
S'noteheadBlack'
p14
sg7
(lp15
I1863
aI266
aI1886
aI289
asg9
I0
sa(dp16
g2
I0
sg3
g4
sg5
S'flag8thDown'
p17
sg7
(lp18
I2067
aI362
aI2087
aI389
asg9
I0
sa(dp19
g2
I0
sg3
g4
sg5
S'noteheadBlack'
p20
sg7
(lp21
I2066
aI301
aI2089
aI323
asg9
I0
sa(dp22
g2
I0
sg3
g4
sg5
S'rest8th'
p23
sg7
(lp24
I2026
aI293
aI2048
aI332
asg9
I0
sa(dp25
g2
I0
sg3
g4
sg5
S'flag8thDown'
p26
sg7
(lp27
I1986
aI353
aI2006
aI380
asg9
I0
sa(dp28
g2
I0
sg3
g4
sg5
S'noteheadBlack'
p29
sg7
(lp30
I1985
aI289
aI2008
aI312
asg9
I0
sa(dp31
g2
I0
sg3
g4
sg5
S'noteheadBlack'
p32
sg7
(lp33
I1781
aI266
aI1804
aI289
asg9
I0
sa(dp34
g2
I0
sg3
g4
sg5
S'restHalf'
p35
sg7
(lp36
I1670
aI299
aI1702
aI312
asg9
I0
sa(dp37
g2
I0
sg3
g4
sg5
S'restWhole'
p38
sg7
(lp39
I635
aI289
aI753
aI338
asg9
I0
sa(dp40
g2
I0
sg3
g4
sg5
S'noteheadBlack'
p41
sg7
(lp42
I1822
aI266
aI1845
aI289
asg9
I0
sa(dp43
g2
I0
sg3
g4
sg5
S'restQuarter'
p44
sg7
(lp45
I2517
aI272
aI2538
aI331
asg9
I0
sa(dp46
g2
I0
sg3
g4
sg5
S'noteheadHalf'
p47
sg7
(lp48
I2431
aI220
aI2465
aI244
asg9
I0
sa(dp49
g2
I0
sg3
g4
sg5
S'articStaccatoAbove'
p50
sg7
(lp51
I2191
aI184
aI2201
aI193
asg9
I0
sa(dp52
g2
I0
sg3
g4
sg5
S'noteheadBlack'
p53
sg7
(lp54
I2184
aI198
aI2208
aI221
asg9
I0
sa(dp55
g2
I0
sg3
g4
sg5
S'restQuarter'
p56
sg7
(lp57
I1613
aI272
aI1634
aI331
asg9
I0
sa(dp58
g2
I0
sg3
g4
sg5
S'noteheadBlack'
p59
sg7
(lp60
I2312
aI198
aI2336
aI221
asg9
I0
sa(dp61
g2
I0
sg3
g4
sg5
S'noteheadBlack'
p62
sg7
(lp63
I2377
aI198
aI2401
aI221
asg9
I0
sa(dp64
g2
I0
sg3
g4
sg5
S'flag8thDown'
p65
sg7
(lp66
I2314
aI285
aI2334
aI312
asg9
I0
sa(dp67
g2
I0
sg3
g4
sg5
S'restQuarter'
p68
sg7
(lp69
I2127
aI272
aI2149
aI331
asg9
I0
sa(dp70
g2
I0
sg3
g4
sg5
S'augmentationDot'
p71
sg7
(lp72
I2276
aI205
aI2286
aI214
asg9
I0
sa(dp73
g2
I0
sg3
g4
sg5
S'noteheadBlack'
p74
sg7
(lp75
I2243
aI209
aI2266
aI232
asg9
I0
sa(dp76
g2
I0
sg3
g4
sg5
S'noteheadBlack'
p77
sg7
(lp78
I1103
aI255
aI1126
aI278
asg9
I0
sa(dp79
g2
I0
sg3
g4
sg5
S'noteheadBlack'
p80
sg7
(lp81
I1062
aI255
aI1085
aI278
asg9
I0
sa(dp82
g2
I0
sg3
g4
sg5
S'noteheadBlack'
p83
sg7
(lp84
I1021
aI255
aI1044
aI278
asg9
I0
sa(dp85
g2
I0
sg3
g4
sg5
S'noteheadBlack'
p86
sg7
(lp87
I1205
aI255
aI1228
aI278
asg9
I0
sa(dp88
g2
I0
sg3
g4
sg5
S'noteheadBlack'
p89
sg7
(lp90
I980
aI255
aI1003
aI278
asg9
I0
sa(dp91
g2
I0
sg3
g4
sg5
S'noteheadBlack'
p92
sg7
(lp93
I1144
aI255
aI1167
aI278
asg9
I0
sa(dp94
g2
I0
sg3
g4
sg5
S'timeSig4'
p95
sg7
(lp96
I490
aI266
aI527
aI312
asg9
I0
sa(dp97
g2
I0
sg3
g4
sg5
S'timeSig4'
p98
sg7
(lp99
I490
aI313
aI527
aI358
asg9
I0
sa(dp100
g2
I0
sg3
g4
sg5
S'restQuarter'
p101
sg7
(lp102
I882
aI272
aI903
aI331
asg9
I0
sa(dp103
g2
I0
sg3
g4
sg5
S'keyFlat'
p104
sg7
(lp105
I420
aI278
aI442
aI330
asg9
I0
sa(dp106
g2
I0
sg3
g4
sg5
S'keyFlat'
p107
sg7
(lp108
I442
aI244
aI463
aI296
asg9
I0
sa(dp109
g2
I0
sg3
g4
sg5
S'gClef'
p110
sg7
(lp111
I341
aI246
aI399
aI383
asg9
I0
sa(dp112
g2
I0
sg3
g4
sg5
S'restHBar'
p113
sg7
(lp114
I678
aI210
aI711
aI256
asg9
I0
sa(dp115
g2
I0
sg3
g4
sg5
S'noteheadBlack'
p116
sg7
(lp117
I938
aI255
aI962
aI278
asg9
I0
sa(dp118
g2
I0
sg3
g4
sg5
S'rest8th'
p119
sg7
(lp120
I1450
aI293
aI1472
aI332
asg9
I0
sa(dp121
g2
I0
sg3
g4
sg5
S'flag8thDown'
p122
sg7
(lp123
I1411
aI342
aI1431
aI369
asg9
I0
sa(dp124
g2
I0
sg3
g4
sg5
S'noteheadBlack'
p125
sg7
(lp126
I1409
aI278
aI1433
aI301
asg9
I0
sa(dp127
g2
I0
sg3
g4
sg5
S'rest8th'
p128
sg7
(lp129
I1370
aI293
aI1391
aI332
asg9
I0
sa(dp130
g2
I0
sg3
g4
sg5
S'noteheadBlack'
p131
sg7
(lp132
I1328
aI255
aI1352
aI278
asg9
I0
sa(dp133
g2
I0
sg3
g4
sg5
S'noteheadBlack'
p134
sg7
(lp135
I1556
aI289
aI1579
aI312
asg9
I0
sa(dp136
g2
I0
sg3
g4
sg5
S'flag8thDown'
p137
sg7
(lp138
I1492
aI353
aI1512
aI380
asg9
I0
sa(dp139
g2
I0
sg3
g4
sg5
S'noteheadBlack'
p140
sg7
(lp141
I1490
aI289
aI1513
aI312
asg9
I0
sa(dp142
g2
I0
sg3
g4
sg5
S'noteheadBlack'
p143
sg7
(lp144
I1246
aI255
aI1270
aI278
asg9
I0
sa(dp145
g2
I0
sg3
g4
sg5
S'noteheadBlack'
p146
sg7
(lp147
I1287
aI255
aI1311
aI278
asg9
I0
sa(dp148
g2
I0
sg3
g4
sg5
S'noteheadBlack'
p149
sg7
(lp150
I1687
aI472
aI1710
aI495
asg9
I0
sa(dp151
g2
I0
sg3
g4
sg5
S'flag8thDown'
p152
sg7
(lp153
I1620
aI558
aI1640
aI586
asg9
I0
sa(dp154
g2
I0
sg3
g4
sg5
S'noteheadHalf'
p155
sg7
(lp156
I1240
aI494
aI1274
aI518
asg9
I0
sa(dp157
g2
I0
sg3
g4
sg5
S'noteheadBlack'
p158
sg7
(lp159
I1855
aI472
aI1878
aI495
asg9
I0
sa(dp160
g2
I0
sg3
g4
sg5
S'noteheadBlack'
p161
sg7
(lp162
I1811
aI483
aI1835
aI506
asg9
I0
sa(dp163
g2
I0
sg3
g4
sg5
S'restQuarter'
p164
sg7
(lp165
I1749
aI546
aI1771
aI605
asg9
I0
sa(dp166
g2
I0
sg3
g4
sg5
S'restQuarter'
p167
sg7
(lp168
I1417
aI546
aI1438
aI605
asg9
I0
sa(dp169
g2
I0
sg3
g4
sg5
S'restQuarter'
p170
sg7
(lp171
I1334
aI546
aI1355
aI605
asg9
I0
sa(dp172
g2
I0
sg3
g4
sg5
S'augmentationDot'
p173
sg7
(lp174
I1576
aI479
aI1586
aI488
asg9
I0
sa(dp175
g2
I0
sg3
g4
sg5
S'noteheadBlack'
p176
sg7
(lp177
I1543
aI483
aI1566
aI506
asg9
I0
sa(dp178
g2
I0
sg3
g4
sg5
S'noteheadBlack'
p179
sg7
(lp180
I1619
aI472
aI1642
aI495
asg9
I0
sa(dp181
g2
I0
sg3
g4
sg5
S'articStaccatoAbove'
p182
sg7
(lp183
I1486
aI458
aI1496
aI467
asg9
I0
sa(dp184
g2
I0
sg3
g4
sg5
S'noteheadBlack'
p185
sg7
(lp186
I1479
aI472
aI1502
aI495
asg9
I0
sa(dp187
g2
I0
sg3
g4
sg5
S'noteheadBlack'
p188
sg7
(lp189
I2454
aI483
aI2478
aI506
asg9
I0
sa(dp190
g2
I0
sg3
g4
sg5
S'noteheadBlack'
p191
sg7
(lp192
I2530
aI472
aI2553
aI495
asg9
I0
sa(dp193
g2
I0
sg3
g4
sg5
S'augmentationDot'
p194
sg7
(lp195
I2488
aI479
aI2498
aI488
asg9
I0
sa(dp196
g2
I0
sg3
g4
sg5
S'flag8thDown'
p197
sg7
(lp198
I2532
aI558
aI2552
aI586
asg9
I0
sa(dp199
g2
I0
sg3
g4
sg5
S'articStaccatoAbove'
p200
sg7
(lp201
I2397
aI458
aI2407
aI467
asg9
I0
sa(dp202
g2
I0
sg3
g4
sg5
S'noteheadBlack'
p203
sg7
(lp204
I2391
aI472
aI2414
aI495
asg9
I0
sa(dp205
g2
I0
sg3
g4
sg5
S'restWhole'
p206
sg7
(lp207
I2126
aI563
aI2168
aI612
asg9
I0
sa(dp208
g2
I0
sg3
g4
sg5
S'restHBar'
p209
sg7
(lp210
I2131
aI484
aI2163
aI530
asg9
I0
sa(dp211
g2
I0
sg3
g4
sg5
S'noteheadBlack'
p212
sg7
(lp213
I1942
aI472
aI1965
aI495
asg9
I0
sa(dp214
g2
I0
sg3
g4
sg5
S'noteheadBlack'
p215
sg7
(lp216
I1898
aI483
aI1922
aI506
asg9
I0
sa(dp217
g2
I0
sg3
g4
sg5
S'restQuarter'
p218
sg7
(lp219
I2329
aI546
aI2350
aI605
asg9
I0
sa(dp220
g2
I0
sg3
g4
sg5
S'restQuarter'
p221
sg7
(lp222
I658
aI546
aI679
aI605
asg9
I0
sa(dp223
g2
I0
sg3
g4
sg5
S'noteheadBlack'
p224
sg7
(lp225
I595
aI472
aI619
aI495
asg9
I0
sa(dp226
g2
I0
sg3
g4
sg5
S'flag8thDown'
p227
sg7
(lp228
I529
aI558
aI548
aI586
asg9
I0
sa(dp229
g2
I0
sg3
g4
sg5
S'noteheadBlack'
p230
sg7
(lp231
I807
aI483
aI830
aI506
asg9
I0
sa(dp232
g2
I0
sg3
g4
sg5
S'noteheadBlack'
p233
sg7
(lp234
I720
aI483
aI743
aI506
asg9
I0
sa(dp235
g2
I0
sg3
g4
sg5
S'restQuarter'
p236
sg7
(lp237
I326
aI546
aI347
aI605
asg9
I0
sa(dp238
g2
I0
sg3
g4
sg5
S'keyFlat'
p239
sg7
(lp240
I227
aI552
aI249
aI604
asg9
I0
sa(dp241
g2
I0
sg3
g4
sg5
S'keyFlat'
p242
sg7
(lp243
I249
aI518
aI270
aI570
asg9
I0
sa(dp244
g2
I0
sg3
g4
sg5
S'gClef'
p245
sg7
(lp246
I147
aI520
aI206
aI657
asg9
I0
sa(dp247
g2
I0
sg3
g4
sg5
S'noteheadBlack'
p248
sg7
(lp249
I527
aI472
aI550
aI495
asg9
I0
sa(dp250
g2
I0
sg3
g4
sg5
S'augmentationDot'
p251
sg7
(lp252
I485
aI479
aI494
aI488
asg9
I0
sa(dp253
g2
I0
sg3
g4
sg5
S'noteheadBlack'
p254
sg7
(lp255
I451
aI483
aI475
aI506
asg9
I0
sa(dp256
g2
I0
sg3
g4
sg5
S'noteheadBlack'
p257
sg7
(lp258
I763
aI472
aI787
aI495
asg9
I0
sa(dp259
g2
I0
sg3
g4
sg5
S'articStaccatoAbove'
p260
sg7
(lp261
I394
aI458
aI404
aI467
asg9
I0
sa(dp262
g2
I0
sg3
g4
sg5
S'noteheadBlack'
p263
sg7
(lp264
I387
aI472
aI411
aI495
asg9
I0
sa(dp265
g2
I0
sg3
g4
sg5
S'noteheadBlack'
p266
sg7
(lp267
I1038
aI483
aI1061
aI506
asg9
I0
sa(dp268
g2
I0
sg3
g4
sg5
S'noteheadBlack'
p269
sg7
(lp270
I1114
aI472
aI1137
aI495
asg9
I0
sa(dp271
g2
I0
sg3
g4
sg5
S'augmentationDot'
p272
sg7
(lp273
I1071
aI479
aI1081
aI488
asg9
I0
sa(dp274
g2
I0
sg3
g4
sg5
S'flag8thDown'
p275
sg7
(lp276
I1115
aI558
aI1135
aI586
asg9
I0
sa(dp277
g2
I0
sg3
g4
sg5
S'articStaccatoAbove'
p278
sg7
(lp279
I981
aI458
aI991
aI467
asg9
I0
sa(dp280
g2
I0
sg3
g4
sg5
S'noteheadBlack'
p281
sg7
(lp282
I974
aI472
aI997
aI495
asg9
I0
sa(dp283
g2
I0
sg3
g4
sg5
S'noteheadBlack'
p284
sg7
(lp285
I1182
aI472
aI1205
aI495
asg9
I0
sa(dp286
g2
I0
sg3
g4
sg5
S'restQuarter'
p287
sg7
(lp288
I912
aI546
aI933
aI605
asg9
I0
sa(dp289
g2
I0
sg3
g4
sg5
S'noteheadBlack'
p290
sg7
(lp291
I850
aI472
aI874
aI495
asg9
I0
sa(dp292
g2
I0
sg3
g4
sg5
S'noteheadBlack'
p293
sg7
(lp294
I1954
aI769
aI1978
aI791
asg9
I0
sa(dp295
g2
I0
sg3
g4
sg5
S'noteheadBlack'
p296
sg7
(lp297
I2018
aI769
aI2042
aI791
asg9
I0
sa(dp298
g2
I0
sg3
g4
sg5
S'noteheadBlack'
p299
sg7
(lp300
I1912
aI769
aI1935
aI791
asg9
I0
sa(dp301
g2
I0
sg3
g4
sg5
S'noteheadBlack'
p302
sg7
(lp303
I1480
aI780
aI1503
aI803
asg9
I0
sa(dp304
g2
I0
sg3
g4
sg5
S'flag8thDown'
p305
sg7
(lp306
I2020
aI832
aI2040
aI860
asg9
I0
sa(dp307
g2
I0
sg3
g4
sg5
S'noteheadBlack'
p308
sg7
(lp309
I1869
aI769
aI1892
aI791
asg9
I0
sa(dp310
g2
I0
sg3
g4
sg5
S'noteheadBlack'
p311
sg7
(lp312
I1666
aI791
aI1690
aI814
asg9
I0
sa(dp313
g2
I0
sg3
g4
sg5
S'noteheadHalf'
p314
sg7
(lp315
I1735
aI791
aI1769
aI815
asg9
I0
sa(dp316
g2
I0
sg3
g4
sg5
S'flag8thDown'
p317
sg7
(lp318
I1668
aI855
aI1688
aI883
asg9
I0
sa(dp319
g2
I0
sg3
g4
sg5
S'noteheadBlack'
p320
sg7
(lp321
I1542
aI791
aI1565
aI814
asg9
I0
sa(dp322
g2
I0
sg3
g4
sg5
S'noteheadBlack'
p323
sg7
(lp324
I1604
aI780
aI1627
aI803
asg9
I0
sa(dp325
g2
I0
sg3
g4
sg5
S'rest8th'
p326
sg7
(lp327
I1827
aI841
aI1849
aI880
asg9
I0
sa(dp328
g2
I0
sg3
g4
sg5
S'noteheadBlack'
p329
sg7
(lp330
I2534
aI769
aI2558
aI791
asg9
I0
sa(dp331
g2
I0
sg3
g4
sg5
S'noteheadBlack'
p332
sg7
(lp333
I2492
aI769
aI2515
aI791
asg9
I0
sa(dp334
g2
I0
sg3
g4
sg5
S'noteheadBlack'
p335
sg7
(lp336
I2449
aI769
aI2472
aI791
asg9
I0
sa(dp337
g2
I0
sg3
g4
sg5
S'restWhole'
p338
sg7
(lp339
I1054
aI837
aI1067
aI857
asg9
I0
sa(dp340
g2
I0
sg3
g4
sg5
S'restHBar'
p341
sg7
(lp342
I1046
aI758
aI1075
aI804
asg9
I0
sa(dp343
g2
I0
sg3
g4
sg5
S'flag8thDown'
p344
sg7
(lp345
I2249
aI832
aI2269
aI860
asg9
I0
sa(dp346
g2
I0
sg3
g4
sg5
S'noteheadBlack'
p347
sg7
(lp348
I2248
aI769
aI2271
aI791
asg9
I0
sa(dp349
g2
I0
sg3
g4
sg5
S'noteheadBlack'
p350
sg7
(lp351
I2185
aI769
aI2209
aI791
asg9
I0
sa(dp352
g2
I0
sg3
g4
sg5
S'noteheadBlack'
p353
sg7
(lp354
I2129
aI746
aI2152
aI769
asg9
I0
sa(dp355
g2
I0
sg3
g4
sg5
S'articStaccatoAbove'
p356
sg7
(lp357
I2068
aI755
aI2078
aI764
asg9
I0
sa(dp358
g2
I0
sg3
g4
sg5
S'rest8th'
p359
sg7
(lp360
I2407
aI841
aI2429
aI880
asg9
I0
sa(dp361
g2
I0
sg3
g4
sg5
S'noteheadBlack'
p362
sg7
(lp363
I2061
aI769
aI2084
aI791
asg9
I0
sa(dp364
g2
I0
sg3
g4
sg5
S'noteheadHalf'
p365
sg7
(lp366
I2315
aI768
aI2349
aI792
asg9
I0
sa(dp367
g2
I0
sg3
g4
sg5
S'augmentationDot'
p368
sg7
(lp369
I712
aI752
aI722
aI762
asg9
I0
sa(dp370
g2
I0
sg3
g4
sg5
S'noteheadBlack'
p371
sg7
(lp372
I678
aI757
aI702
aI780
asg9
I0
sa(dp373
g2
I0
sg3
g4
sg5
S'articStaccatoAbove'
p374
sg7
(lp375
I623
aI732
aI633
aI741
asg9
I0
sa(dp376
g2
I0
sg3
g4
sg5
S'noteheadBlack'
p377
sg7
(lp378
I616
aI746
aI640
aI769
asg9
I0
sa(dp379
g2
I0
sg3
g4
sg5
S'noteheadWhole'
p380
sg7
(lp381
I833
aI746
aI878
aI769
asg9
I0
sa(dp382
g2
I0
sg3
g4
sg5
S'flag8thDown'
p383
sg7
(lp384
I753
aI832
aI773
aI860
asg9
I0
sa(dp385
g2
I0
sg3
g4
sg5
S'noteheadBlack'
p386
sg7
(lp387
I752
aI746
aI775
aI769
asg9
I0
sa(dp388
g2
I0
sg3
g4
sg5
S'gClef'
p389
sg7
(lp390
I147
aI794
aI206
aI931
asg9
I0
sa(dp391
g2
I0
sg3
g4
sg5
S'noteheadBlack'
p392
sg7
(lp393
I327
aI746
aI350
aI769
asg9
I0
sa(dp394
g2
I0
sg3
g4
sg5
S'keyFlat'
p395
sg7
(lp396
I227
aI826
aI249
aI878
asg9
I0
sa(dp397
g2
I0
sg3
g4
sg5
S'keyFlat'
p398
sg7
(lp399
I249
aI792
aI270
aI844
asg9
I0
sa(dp400
g2
I0
sg3
g4
sg5
S'restQuarter'
p401
sg7
(lp402
I556
aI820
aI577
aI879
asg9
I0
sa(dp403
g2
I0
sg3
g4
sg5
S'restQuarter'
p404
sg7
(lp405
I475
aI820
aI496
aI879
asg9
I0
sa(dp406
g2
I0
sg3
g4
sg5
S'noteheadHalf'
p407
sg7
(lp408
I384
aI768
aI418
aI792
asg9
I0
sa(dp409
g2
I0
sg3
g4
sg5
S'noteheadBlack'
p410
sg7
(lp411
I1375
aI780
aI1398
aI803
asg9
I0
sa(dp412
g2
I0
sg3
g4
sg5
S'noteheadBlack'
p413
sg7
(lp414
I1332
aI791
aI1355
aI814
asg9
I0
sa(dp415
g2
I0
sg3
g4
sg5
S'restQuarter'
p416
sg7
(lp417
I1272
aI820
aI1293
aI879
asg9
I0
sa(dp418
g2
I0
sg3
g4
sg5
S'flag8thDown'
p419
sg7
(lp420
I1439
aI832
aI1458
aI860
asg9
I0
sa(dp421
g2
I0
sg3
g4
sg5
S'noteheadBlack'
p422
sg7
(lp423
I1437
aI769
aI1460
aI791
asg9
I0
sa(dp424
g2
I0
sg3
g4
sg5
S'restHalf'
p425
sg7
(lp426
I1183
aI847
aI1215
aI860
asg9
I0
sa(dp427
g2
I0
sg3
g4
sg5
S'segno'
p428
sg7
(lp429
I930
aI740
aI987
aI795
asg9
I0
sa(dp430
g2
I0
sg3
g4
sg5
S'articStaccatoAbove'
p431
sg7
(lp432
I1756
aI1029
aI1766
aI1038
asg9
I0
sa(dp433
g2
I0
sg3
g4
sg5
S'noteheadBlack'
p434
sg7
(lp435
I1884
aI1042
aI1907
aI1065
asg9
I0
sa(dp436
g2
I0
sg3
g4
sg5
S'noteheadBlack'
p437
sg7
(lp438
I1822
aI1020
aI1845
aI1042
asg9
I0
sa(dp439
g2
I0
sg3
g4
sg5
S'noteheadHalf'
p440
sg7
(lp441
I2021
aI1042
aI2056
aI1066
asg9
I0
sa(dp442
g2
I0
sg3
g4
sg5
S'flag8thDown'
p443
sg7
(lp444
I1952
aI1106
aI1972
aI1134
asg9
I0
sa(dp445
g2
I0
sg3
g4
sg5
S'noteheadBlack'
p446
sg7
(lp447
I1951
aI1042
aI1974
aI1065
asg9
I0
sa(dp448
g2
I0
sg3
g4
sg5
S'noteheadBlack'
p449
sg7
(lp450
I1637
aI1042
aI1660
aI1065
asg9
I0
sa(dp451
g2
I0
sg3
g4
sg5
S'noteheadBlack'
p452
sg7
(lp453
I1591
aI1042
aI1615
aI1065
asg9
I0
sa(dp454
g2
I0
sg3
g4
sg5
S'noteheadBlack'
p455
sg7
(lp456
I1546
aI1042
aI1569
aI1065
asg9
I0
sa(dp457
g2
I0
sg3
g4
sg5
S'restWhole'
p458
sg7
(lp459
I681
aI1111
aI695
aI1131
asg9
I0
sa(dp460
g2
I0
sg3
g4
sg5
S'noteheadBlack'
p461
sg7
(lp462
I1749
aI1042
aI1773
aI1065
asg9
I0
sa(dp463
g2
I0
sg3
g4
sg5
S'flag8thDown'
p464
sg7
(lp465
I1705
aI1106
aI1725
aI1134
asg9
I0
sa(dp466
g2
I0
sg3
g4
sg5
S'noteheadBlack'
p467
sg7
(lp468
I1704
aI1042
aI1727
aI1065
asg9
I0
sa(dp469
g2
I0
sg3
g4
sg5
S'augmentationDot'
p470
sg7
(lp471
I2530
aI1026
aI2540
aI1036
asg9
I0
sa(dp472
g2
I0
sg3
g4
sg5
S'noteheadBlack'
p473
sg7
(lp474
I2497
aI1031
aI2520
aI1054
asg9
I0
sa(dp475
g2
I0
sg3
g4
sg5
S'noteheadBlack'
p476
sg7
(lp477
I2430
aI1042
aI2453
aI1065
asg9
I0
sa(dp478
g2
I0
sg3
g4
sg5
S'noteheadBlack'
p479
sg7
(lp480
I2368
aI1020
aI2392
aI1042
asg9
I0
sa(dp481
g2
I0
sg3
g4
sg5
S'restHBar'
p482
sg7
(lp483
I673
aI1032
aI702
aI1078
asg9
I0
sa(dp484
g2
I0
sg3
g4
sg5
S'noteheadBlack'
p485
sg7
(lp486
I2211
aI1031
aI2234
aI1054
asg9
I0
sa(dp487
g2
I0
sg3
g4
sg5
S'noteheadBlack'
p488
sg7
(lp489
I2165
aI1042
aI2189
aI1065
asg9
I0
sa(dp490
g2
I0
sg3
g4
sg5
S'rest8th'
p491
sg7
(lp492
I2121
aI1115
aI2143
aI1154
asg9
I0
sa(dp493
g2
I0
sg3
g4
sg5
S'flag8thDown'
p494
sg7
(lp495
I2325
aI1106
aI2345
aI1134
asg9
I0
sa(dp496
g2
I0
sg3
g4
sg5
S'noteheadBlack'
p497
sg7
(lp498
I2323
aI1008
aI2346
aI1031
asg9
I0
sa(dp499
g2
I0
sg3
g4
sg5
S'noteheadBlack'
p500
sg7
(lp501
I2256
aI1020
aI2279
aI1042
asg9
I0
sa(dp502
g2
I0
sg3
g4
sg5
S'restHalf'
p503
sg7
(lp504
I811
aI1121
aI843
aI1134
asg9
I0
sa(dp505
g2
I0
sg3
g4
sg5
S'noteheadBlack'
p506
sg7
(lp507
I1018
aI1054
aI1041
aI1077
asg9
I0
sa(dp508
g2
I0
sg3
g4
sg5
S'noteheadBlack'
p509
sg7
(lp510
I972
aI1065
aI996
aI1088
asg9
I0
sa(dp511
g2
I0
sg3
g4
sg5
S'rest8th'
p512
sg7
(lp513
I1502
aI1115
aI1524
aI1154
asg9
I0
sa(dp514
g2
I0
sg3
g4
sg5
S'restQuarter'
p515
sg7
(lp516
I907
aI1094
aI929
aI1153
asg9
I0
sa(dp517
g2
I0
sg3
g4
sg5
S'keyFlat'
p518
sg7
(lp519
I227
aI1100
aI249
aI1152
asg9
I0
sa(dp520
g2
I0
sg3
g4
sg5
S'keyFlat'
p521
sg7
(lp522
I249
aI1066
aI270
aI1117
asg9
I0
sa(dp523
g2
I0
sg3
g4
sg5
S'noteheadBlack'
p524
sg7
(lp525
I327
aI1042
aI350
aI1065
asg9
I0
sa(dp526
g2
I0
sg3
g4
sg5
S'flag8thDown'
p527
sg7
(lp528
I329
aI1106
aI348
aI1134
asg9
I0
sa(dp529
g2
I0
sg3
g4
sg5
S'gClef'
p530
sg7
(lp531
I147
aI1068
aI206
aI1205
asg9
I0
sa(dp532
g2
I0
sg3
g4
sg5
S'noteheadBlack'
p533
sg7
(lp534
I445
aI1020
aI468
aI1042
asg9
I0
sa(dp535
g2
I0
sg3
g4
sg5
S'augmentationDot'
p536
sg7
(lp537
I540
aI1049
aI550
aI1059
asg9
I0
sa(dp538
g2
I0
sg3
g4
sg5
S'noteheadBlack'
p539
sg7
(lp540
I507
aI1042
aI530
aI1065
asg9
I0
sa(dp541
g2
I0
sg3
g4
sg5
S'articStaccatoAbove'
p542
sg7
(lp543
I379
aI1029
aI389
aI1038
asg9
I0
sa(dp544
g2
I0
sg3
g4
sg5
S'noteheadBlack'
p545
sg7
(lp546
I372
aI1042
aI396
aI1065
asg9
I0
sa(dp547
g2
I0
sg3
g4
sg5
S'noteheadBlack'
p548
sg7
(lp549
I1129
aI1054
aI1152
aI1077
asg9
I0
sa(dp550
g2
I0
sg3
g4
sg5
S'noteheadHalf'
p551
sg7
(lp552
I1402
aI1065
aI1436
aI1089
asg9
I0
sa(dp553
g2
I0
sg3
g4
sg5
S'noteheadBlack'
p554
sg7
(lp555
I1196
aI1065
aI1219
aI1088
asg9
I0
sa(dp556
g2
I0
sg3
g4
sg5
S'noteheadBlack'
p557
sg7
(lp558
I1263
aI1054
aI1286
aI1077
asg9
I0
sa(dp559
g2
I0
sg3
g4
sg5
S'noteheadBlack'
p560
sg7
(lp561
I1330
aI1065
aI1354
aI1088
asg9
I0
sa(dp562
g2
I0
sg3
g4
sg5
S'flag8thDown'
p563
sg7
(lp564
I1332
aI1129
aI1352
aI1157
asg9
I0
sa(dp565
g2
I0
sg3
g4
sg5
S'noteheadBlack'
p566
sg7
(lp567
I1083
aI1042
aI1107
aI1065
asg9
I0
sa(dp568
g2
I0
sg3
g4
sg5
S'flag8thDown'
p569
sg7
(lp570
I1085
aI1106
aI1105
aI1134
asg9
I0
sa(dp571
g2
I0
sg3
g4
sg5
S'augmentationDot'
p572
sg7
(lp573
I1938
aI1300
aI1948
aI1310
asg9
I0
sa(dp574
g2
I0
sg3
g4
sg5
S'noteheadBlack'
p575
sg7
(lp576
I1905
aI1305
aI1928
aI1328
asg9
I0
sa(dp577
g2
I0
sg3
g4
sg5
S'articStaccatoAbove'
p578
sg7
(lp579
I1849
aI1280
aI1859
aI1289
asg9
I0
sa(dp580
g2
I0
sg3
g4
sg5
S'noteheadBlack'
p581
sg7
(lp582
I1842
aI1294
aI1865
aI1316
asg9
I0
sa(dp583
g2
I0
sg3
g4
sg5
S'restWhole'
p584
sg7
(lp585
I586
aI1385
aI617
aI1398
asg9
I0
sa(dp586
g2
I0
sg3
g4
sg5
S'noteheadBlack'
p587
sg7
(lp588
I2046
aI1294
aI2070
aI1316
asg9
I0
sa(dp589
g2
I0
sg3
g4
sg5
S'flag8thDown'
p590
sg7
(lp591
I1980
aI1380
aI2000
aI1408
asg9
I0
sa(dp592
g2
I0
sg3
g4
sg5
S'noteheadBlack'
p593
sg7
(lp594
I1979
aI1294
aI2002
aI1316
asg9
I0
sa(dp595
g2
I0
sg3
g4
sg5
S'flag8thDown'
p596
sg7
(lp597
I1485
aI1380
aI1505
aI1408
asg9
I0
sa(dp598
g2
I0
sg3
g4
sg5
S'noteheadBlack'
p599
sg7
(lp600
I1551
aI1316
aI1574
aI1339
asg9
I0
sa(dp601
g2
I0
sg3
g4
sg5
S'restQuarter'
p602
sg7
(lp603
I1782
aI1368
aI1803
aI1427
asg9
I0
sa(dp604
g2
I0
sg3
g4
sg5
S'restQuarter'
p605
sg7
(lp606
I1700
aI1368
aI1721
aI1427
asg9
I0
sa(dp607
g2
I0
sg3
g4
sg5
S'noteheadBlack'
p608
sg7
(lp609
I1483
aI1316
aI1507
aI1339
asg9
I0
sa(dp610
g2
I0
sg3
g4
sg5
S'noteheadHalf'
p611
sg7
(lp612
I1608
aI1339
aI1642
aI1363
asg9
I0
sa(dp613
g2
I0
sg3
g4
sg5
S'restHalf'
p614
sg7
(lp615
I2483
aI1395
aI2515
aI1408
asg9
I0
sa(dp616
g2
I0
sg3
g4
sg5
S'restQuarter'
p617
sg7
(lp618
I2423
aI1368
aI2444
aI1427
asg9
I0
sa(dp619
g2
I0
sg3
g4
sg5
S'noteheadBlack'
p620
sg7
(lp621
I2168
aI1305
aI2192
aI1328
asg9
I0
sa(dp622
g2
I0
sg3
g4
sg5
S'noteheadBlack'
p623
sg7
(lp624
I2211
aI1294
aI2235
aI1316
asg9
I0
sa(dp625
g2
I0
sg3
g4
sg5
S'restQuarter'
p626
sg7
(lp627
I2108
aI1368
aI2129
aI1427
asg9
I0
sa(dp628
g2
I0
sg3
g4
sg5
S'noteheadBlack'
p629
sg7
(lp630
I2361
aI1316
aI2385
aI1339
asg9
I0
sa(dp631
g2
I0
sg3
g4
sg5
S'noteheadBlack'
p632
sg7
(lp633
I2297
aI1294
aI2320
aI1316
asg9
I0
sa(dp634
g2
I0
sg3
g4
sg5
S'noteheadBlack'
p635
sg7
(lp636
I2254
aI1305
aI2277
aI1328
asg9
I0
sa(dp637
g2
I0
sg3
g4
sg5
S'noteheadBlack'
p638
sg7
(lp639
I833
aI1305
aI856
aI1328
asg9
I0
sa(dp640
g2
I0
sg3
g4
sg5
S'articStaccatoAbove'
p641
sg7
(lp642
I777
aI1280
aI787
aI1289
asg9
I0
sa(dp643
g2
I0
sg3
g4
sg5
S'noteheadBlack'
p644
sg7
(lp645
I770
aI1294
aI793
aI1316
asg9
I0
sa(dp646
g2
I0
sg3
g4
sg5
S'augmentationDot'
p647
sg7
(lp648
I866
aI1300
aI876
aI1310
asg9
I0
sa(dp649
g2
I0
sg3
g4
sg5
S'noteheadBlack'
p650
sg7
(lp651
I974
aI1294
aI998
aI1316
asg9
I0
sa(dp652
g2
I0
sg3
g4
sg5
S'flag8thDown'
p653
sg7
(lp654
I908
aI1380
aI928
aI1408
asg9
I0
sa(dp655
g2
I0
sg3
g4
sg5
S'noteheadBlack'
p656
sg7
(lp657
I907
aI1294
aI930
aI1316
asg9
I0
sa(dp658
g2
I0
sg3
g4
sg5
S'gClef'
p659
sg7
(lp660
I147
aI1342
aI206
aI1479
asg9
I0
sa(dp661
g2
I0
sg3
g4
sg5
S'noteheadHalf'
p662
sg7
(lp663
I327
aI1316
aI361
aI1340
asg9
I0
sa(dp664
g2
I0
sg3
g4
sg5
S'keyFlat'
p665
sg7
(lp666
I227
aI1374
aI249
aI1426
asg9
I0
sa(dp667
g2
I0
sg3
g4
sg5
S'keyFlat'
p668
sg7
(lp669
I249
aI1340
aI270
aI1391
asg9
I0
sa(dp670
g2
I0
sg3
g4
sg5
S'coda'
p671
sg7
(lp672
I239
aI1262
aI301
aI1342
asg9
I0
sa(dp673
g2
I0
sg3
g4
sg5
S'restQuarter'
p674
sg7
(lp675
I710
aI1368
aI731
aI1427
asg9
I0
sa(dp676
g2
I0
sg3
g4
sg5
S'restHalf'
p677
sg7
(lp678
I420
aI1395
aI452
aI1408
asg9
I0
sa(dp679
g2
I0
sg3
g4
sg5
S'noteheadBlack'
p680
sg7
(lp681
I1182
aI1305
aI1205
aI1328
asg9
I0
sa(dp682
g2
I0
sg3
g4
sg5
S'noteheadBlack'
p683
sg7
(lp684
I1225
aI1294
aI1248
aI1316
asg9
I0
sa(dp685
g2
I0
sg3
g4
sg5
S'restQuarter'
p686
sg7
(lp687
I1286
aI1368
aI1307
aI1427
asg9
I0
sa(dp688
g2
I0
sg3
g4
sg5
S'noteheadBlack'
p689
sg7
(lp690
I1139
aI1294
aI1163
aI1316
asg9
I0
sa(dp691
g2
I0
sg3
g4
sg5
S'restQuarter'
p692
sg7
(lp693
I1036
aI1368
aI1057
aI1427
asg9
I0
sa(dp694
g2
I0
sg3
g4
sg5
S'noteheadBlack'
p695
sg7
(lp696
I1409
aI1328
aI1433
aI1351
asg9
I0
sa(dp697
g2
I0
sg3
g4
sg5
S'augmentationDot'
p698
sg7
(lp699
I1443
aI1323
aI1452
aI1333
asg9
I0
sa(dp700
g2
I0
sg3
g4
sg5
S'noteheadBlack'
p701
sg7
(lp702
I1096
aI1305
aI1120
aI1328
asg9
I0
sa(dp703
g2
I0
sg3
g4
sg5
S'noteheadBlack'
p704
sg7
(lp705
I1347
aI1316
aI1370
aI1339
asg9
I0
sa(dp706
g2
I0
sg3
g4
sg5
S'articStaccatoAbove'
p707
sg7
(lp708
I1353
aI1303
aI1363
aI1312
asg9
I0
sa(dp709
g2
I0
sg3
g4
sg5
S'flag8thDown'
p710
sg7
(lp711
I1901
aI1654
aI1921
aI1682
asg9
I0
sa(dp712
g2
I0
sg3
g4
sg5
S'noteheadBlack'
p713
sg7
(lp714
I1942
aI1568
aI1965
aI1590
asg9
I0
sa(dp715
g2
I0
sg3
g4
sg5
S'noteheadBlack'
p716
sg7
(lp717
I2002
aI1556
aI2025
aI1579
asg9
I0
sa(dp718
g2
I0
sg3
g4
sg5
S'noteheadBlack'
p719
sg7
(lp720
I1900
aI1545
aI1923
aI1568
asg9
I0
sa(dp721
g2
I0
sg3
g4
sg5
S'flag8thDown'
p722
sg7
(lp723
I1860
aI1654
aI1880
aI1682
asg9
I0
sa(dp724
g2
I0
sg3
g4
sg5
S'noteheadHalf'
p725
sg7
(lp726
I2068
aI1556
aI2102
aI1580
asg9
I0
sa(dp727
g2
I0
sg3
g4
sg5
S'flag8thDown'
p728
sg7
(lp729
I2003
aI1654
aI2023
aI1682
asg9
I0
sa(dp730
g2
I0
sg3
g4
sg5
S'flag8thDown'
p731
sg7
(lp732
I1752
aI1654
aI1772
aI1682
asg9
I0
sa(dp733
g2
I0
sg3
g4
sg5
S'noteheadBlack'
p734
sg7
(lp735
I1750
aI1568
aI1774
aI1590
asg9
I0
sa(dp736
g2
I0
sg3
g4
sg5
S'noteheadBlack'
p737
sg7
(lp738
I1646
aI1568
aI1669
aI1590
asg9
I0
sa(dp739
g2
I0
sg3
g4
sg5
S'noteheadBlack'
p740
sg7
(lp741
I1688
aI1568
aI1711
aI1590
asg9
I0
sa(dp742
g2
I0
sg3
g4
sg5
S'noteheadBlack'
p743
sg7
(lp744
I1858
aI1545
aI1881
aI1568
asg9
I0
sa(dp745
g2
I0
sg3
g4
sg5
S'noteheadBlack'
p746
sg7
(lp747
I1792
aI1568
aI1815
aI1590
asg9
I0
sa(dp748
g2
I0
sg3
g4
sg5
S'augmentationDot'
p749
sg7
(lp750
I2539
aI1551
aI2549
aI1561
asg9
I0
sa(dp751
g2
I0
sg3
g4
sg5
S'noteheadBlack'
p752
sg7
(lp753
I2506
aI1556
aI2529
aI1579
asg9
I0
sa(dp754
g2
I0
sg3
g4
sg5
S'noteheadBlack'
p755
sg7
(lp756
I2452
aI1533
aI2475
aI1556
asg9
I0
sa(dp757
g2
I0
sg3
g4
sg5
S'noteheadBlack'
p758
sg7
(lp759
I2386
aI1556
aI2409
aI1579
asg9
I0
sa(dp760
g2
I0
sg3
g4
sg5
S'restWhole'
p761
sg7
(lp762
I1353
aI1659
aI1384
aI1672
asg9
I0
sa(dp763
g2
I0
sg3
g4
sg5
S'noteheadBlack'
p764
sg7
(lp765
I2239
aI1568
aI2263
aI1590
asg9
I0
sa(dp766
g2
I0
sg3
g4
sg5
S'noteheadBlack'
p767
sg7
(lp768
I2198
aI1568
aI2221
aI1590
asg9
I0
sa(dp769
g2
I0
sg3
g4
sg5
S'rest8th'
p770
sg7
(lp771
I2157
aI1663
aI2179
aI1702
asg9
I0
sa(dp772
g2
I0
sg3
g4
sg5
S'noteheadBlack'
p773
sg7
(lp774
I2344
aI1556
aI2367
aI1579
asg9
I0
sa(dp775
g2
I0
sg3
g4
sg5
S'flag8thDown'
p776
sg7
(lp777
I2345
aI1654
aI2365
aI1682
asg9
I0
sa(dp778
g2
I0
sg3
g4
sg5
S'noteheadBlack'
p779
sg7
(lp780
I2281
aI1568
aI2305
aI1590
asg9
I0
sa(dp781
g2
I0
sg3
g4
sg5
S'flag8thDown'
p782
sg7
(lp783
I848
aI1654
aI868
aI1682
asg9
I0
sa(dp784
g2
I0
sg3
g4
sg5
S'noteheadBlack'
p785
sg7
(lp786
I846
aI1568
aI870
aI1590
asg9
I0
sa(dp787
g2
I0
sg3
g4
sg5
S'noteheadBlack'
p788
sg7
(lp789
I765
aI1568
aI789
aI1590
asg9
I0
sa(dp790
g2
I0
sg3
g4
sg5
S'noteheadBlack'
p791
sg7
(lp792
I953
aI1613
aI977
aI1636
asg9
I0
sa(dp793
g2
I0
sg3
g4
sg5
S'augmentationDot'
p794
sg7
(lp795
I921
aI1574
aI931
aI1584
asg9
I0
sa(dp796
g2
I0
sg3
g4
sg5
S'noteheadBlack'
p797
sg7
(lp798
I888
aI1579
aI911
aI1602
asg9
I0
sa(dp799
g2
I0
sg3
g4
sg5
S'keyFlat'
p800
sg7
(lp801
I227
aI1648
aI249
aI1700
asg9
I0
sa(dp802
g2
I0
sg3
g4
sg5
S'keyFlat'
p803
sg7
(lp804
I249
aI1614
aI270
aI1665
asg9
I0
sa(dp805
g2
I0
sg3
g4
sg5
S'gClef'
p806
sg7
(lp807
I147
aI1616
aI206
aI1753
asg9
I0
sa(dp808
g2
I0
sg3
g4
sg5
S'noteheadBlack'
p809
sg7
(lp810
I623
aI1568
aI647
aI1590
asg9
I0
sa(dp811
g2
I0
sg3
g4
sg5
S'restHBar'
p812
sg7
(lp813
I407
aI1580
aI462
aI1625
asg9
I0
sa(dp814
g2
I0
sg3
g4
sg5
S'augmentationDot'
p815
sg7
(lp816
I727
aI1574
aI737
aI1584
asg9
I0
sa(dp817
g2
I0
sg3
g4
sg5
S'noteheadBlack'
p818
sg7
(lp819
I694
aI1568
aI718
aI1590
asg9
I0
sa(dp820
g2
I0
sg3
g4
sg5
S'augmentationDot'
p821
sg7
(lp822
I656
aI1574
aI666
aI1584
asg9
I0
sa(dp823
g2
I0
sg3
g4
sg5
S'restHalf'
p824
sg7
(lp825
I1477
aI1669
aI1509
aI1682
asg9
I0
sa(dp826
g2
I0
sg3
g4
sg5
S'restHalf'
p827
sg7
(lp828
I1191
aI1669
aI1222
aI1682
asg9
I0
sa(dp829
g2
I0
sg3
g4
sg5
S'noteheadBlack'
p830
sg7
(lp831
I1604
aI1568
aI1628
aI1590
asg9
I0
sa(dp832
g2
I0
sg3
g4
sg5
S'rest8th'
p833
sg7
(lp834
I1564
aI1663
aI1586
aI1702
asg9
I0
sa(dp835
g2
I0
sg3
g4
sg5
S'noteheadBlack'
p836
sg7
(lp837
I1019
aI1590
aI1043
aI1613
asg9
I0
sa(dp838
g2
I0
sg3
g4
sg5
S'noteheadHalf'
p839
sg7
(lp840
I1101
aI1601
aI1135
aI1625
asg9
I0
sa(dp841
g2
I0
sg3
g4
sg5
S'repeatDot'
p842
sg7
(lp843
I327
aI1940
aI337
aI1949
asg9
I0
sa(dp844
g2
I0
sg3
g4
sg5
S'repeatDot'
p845
sg7
(lp846
I327
aI1962
aI337
aI1972
asg9
I0
sa(dp847
g2
I0
sg3
g4
sg5
S'repeatDot'
p848
sg7
(lp849
I1668
aI1940
aI1678
aI1949
asg9
I0
sa(dp850
g2
I0
sg3
g4
sg5
S'repeatDot'
p851
sg7
(lp852
I1668
aI1962
aI1678
aI1972
asg9
I0
sa(dp853
g2
I0
sg3
g4
sg5
S'restQuarter'
p854
sg7
(lp855
I1728
aI1916
aI1750
aI1975
asg9
I0
sa(dp856
g2
I0
sg3
g4
sg5
S'noteheadBlack'
p857
sg7
(lp858
I1805
aI1841
aI1828
aI1864
asg9
I0
sa(dp859
g2
I0
sg3
g4
sg5
S'articStaccatoAbove'
p860
sg7
(lp861
I1812
aI1828
aI1822
aI1837
asg9
I0
sa(dp862
g2
I0
sg3
g4
sg5
S'noteheadBlack'
p863
sg7
(lp864
I1883
aI1853
aI1907
aI1876
asg9
I0
sa(dp865
g2
I0
sg3
g4
sg5
S'augmentationDot'
p866
sg7
(lp867
I1917
aI1848
aI1927
aI1858
asg9
I0
sa(dp868
g2
I0
sg3
g4
sg5
S'noteheadBlack'
p869
sg7
(lp870
I1515
aI1841
aI1538
aI1864
asg9
I0
sa(dp871
g2
I0
sg3
g4
sg5
S'restQuarter'
p872
sg7
(lp873
I1387
aI1916
aI1409
aI1975
asg9
I0
sa(dp874
g2
I0
sg3
g4
sg5
S'noteheadBlack'
p875
sg7
(lp876
I1464
aI1853
aI1487
aI1876
asg9
I0
sa(dp877
g2
I0
sg3
g4
sg5
S'noteheadBlack'
p878
sg7
(lp879
I1566
aI1853
aI1589
aI1876
asg9
I0
sa(dp880
g2
I0
sg3
g4
sg5
S'noteheadBlack'
p881
sg7
(lp882
I1617
aI1841
aI1640
aI1864
asg9
I0
sa(dp883
g2
I0
sg3
g4
sg5
S'restQuarter'
p884
sg7
(lp885
I2291
aI1916
aI2312
aI1975
asg9
I0
sa(dp886
g2
I0
sg3
g4
sg5
S'noteheadBlack'
p887
sg7
(lp888
I1978
aI1841
aI2002
aI1864
asg9
I0
sa(dp889
g2
I0
sg3
g4
sg5
S'flag8thDown'
p890
sg7
(lp891
I1980
aI1928
aI2000
aI1956
asg9
I0
sa(dp892
g2
I0
sg3
g4
sg5
S'noteheadBlack'
p893
sg7
(lp894
I2057
aI1841
aI2080
aI1864
asg9
I0
sa(dp895
g2
I0
sg3
g4
sg5
S'noteheadBlack'
p896
sg7
(lp897
I2130
aI1944
aI2153
aI1967
asg9
I0
sa(dp898
g2
I0
sg3
g4
sg5
S'noteheadBlack'
p899
sg7
(lp900
I2214
aI1864
aI2237
aI1887
asg9
I0
sa(dp901
g2
I0
sg3
g4
sg5
S'noteheadBlack'
p902
sg7
(lp903
I615
aI1841
aI638
aI1864
asg9
I0
sa(dp904
g2
I0
sg3
g4
sg5
S'flag8thDown'
p905
sg7
(lp906
I616
aI1928
aI636
aI1956
asg9
I0
sa(dp907
g2
I0
sg3
g4
sg5
S'noteheadBlack'
p908
sg7
(lp909
I693
aI1841
aI716
aI1864
asg9
I0
sa(dp910
g2
I0
sg3
g4
sg5
S'restQuarter'
p911
sg7
(lp912
I882
aI1916
aI903
aI1975
asg9
I0
sa(dp913
g2
I0
sg3
g4
sg5
S'restWhole'
p914
sg7
(lp915
I2447
aI1933
aI2478
aI1946
asg9
I0
sa(dp916
g2
I0
sg3
g4
sg5
S'gClef'
p917
sg7
(lp918
I147
aI1890
aI206
aI2027
asg9
I0
sa(dp919
g2
I0
sg3
g4
sg5
S'keyFlat'
p920
sg7
(lp921
I227
aI1922
aI249
aI1974
asg9
I0
sa(dp922
g2
I0
sg3
g4
sg5
S'keyFlat'
p923
sg7
(lp924
I249
aI1888
aI270
aI1939
asg9
I0
sa(dp925
g2
I0
sg3
g4
sg5
S'noteheadHalf'
p926
sg7
(lp927
I766
aI1864
aI800
aI1888
asg9
I0
sa(dp928
g2
I0
sg3
g4
sg5
S'restQuarter'
p929
sg7
(lp930
I365
aI1916
aI386
aI1975
asg9
I0
sa(dp931
g2
I0
sg3
g4
sg5
S'noteheadBlack'
p932
sg7
(lp933
I441
aI1841
aI465
aI1864
asg9
I0
sa(dp934
g2
I0
sg3
g4
sg5
S'articStaccatoAbove'
p935
sg7
(lp936
I448
aI1828
aI458
aI1837
asg9
I0
sa(dp937
g2
I0
sg3
g4
sg5
S'noteheadBlack'
p938
sg7
(lp939
I520
aI1853
aI543
aI1876
asg9
I0
sa(dp940
g2
I0
sg3
g4
sg5
S'augmentationDot'
p941
sg7
(lp942
I553
aI1848
aI563
aI1858
asg9
I0
sa(dp943
g2
I0
sg3
g4
sg5
S'noteheadBlack'
p944
sg7
(lp945
I1310
aI1841
aI1334
aI1864
asg9
I0
sa(dp946
g2
I0
sg3
g4
sg5
S'noteheadBlack'
p947
sg7
(lp948
I1058
aI1841
aI1082
aI1864
asg9
I0
sa(dp949
g2
I0
sg3
g4
sg5
S'articStaccatoAbove'
p950
sg7
(lp951
I1065
aI1828
aI1075
aI1837
asg9
I0
sa(dp952
g2
I0
sg3
g4
sg5
S'noteheadBlack'
p953
sg7
(lp954
I1137
aI1853
aI1160
aI1876
asg9
I0
sa(dp955
g2
I0
sg3
g4
sg5
S'augmentationDot'
p956
sg7
(lp957
I1170
aI1848
aI1180
aI1858
asg9
I0
sa(dp958
g2
I0
sg3
g4
sg5
S'flag8thDown'
p959
sg7
(lp960
I1233
aI1928
aI1253
aI1956
asg9
I0
sa(dp961
g2
I0
sg3
g4
sg5
S'noteheadBlack'
p962
sg7
(lp963
I1232
aI1841
aI1255
aI1864
asg9
I0
sa(dp964
g2
I0
sg3
g4
sg5
S'restQuarter'
p965
sg7
(lp966
I982
aI1916
aI1003
aI1975
asg9
I0
sa.