(lp0
(dp1
S'difficult'
p2
I0
sS'pose'
p3
S'Unspecified'
p4
sS'name'
p5
S'noteheadBlack'
p6
sS'bbox'
p7
(lp8
I2375
aI636
aI2398
aI658
asS'truncated'
p9
I0
sa(dp10
g2
I0
sg3
g4
sg5
S'noteheadBlack'
p11
sg7
(lp12
I2375
aI613
aI2398
aI636
asg9
I0
sa(dp13
g2
I0
sg3
g4
sg5
S'noteheadBlack'
p14
sg7
(lp15
I2375
aI567
aI2398
aI590
asg9
I0
sa(dp16
g2
I0
sg3
g4
sg5
S'noteheadBlack'
p17
sg7
(lp18
I2489
aI636
aI2512
aI658
asg9
I0
sa(dp19
g2
I0
sg3
g4
sg5
S'noteheadBlack'
p20
sg7
(lp21
I2489
aI613
aI2512
aI636
asg9
I0
sa(dp22
g2
I0
sg3
g4
sg5
S'noteheadBlack'
p23
sg7
(lp24
I2489
aI567
aI2512
aI590
asg9
I0
sa(dp25
g2
I0
sg3
g4
sg5
S'noteheadBlack'
p26
sg7
(lp27
I2097
aI567
aI2120
aI590
asg9
I0
sa(dp28
g2
I0
sg3
g4
sg5
S'noteheadBlack'
p29
sg7
(lp30
I2097
aI601
aI2120
aI624
asg9
I0
sa(dp31
g2
I0
sg3
g4
sg5
S'noteheadBlack'
p32
sg7
(lp33
I2097
aI624
aI2120
aI647
asg9
I0
sa(dp34
g2
I0
sg3
g4
sg5
S'noteheadHalf'
p35
sg7
(lp36
I2260
aI432
aI2294
aI455
asg9
I0
sa(dp37
g2
I0
sg3
g4
sg5
S'noteheadBlack'
p38
sg7
(lp39
I2260
aI636
aI2283
aI658
asg9
I0
sa(dp40
g2
I0
sg3
g4
sg5
S'noteheadBlack'
p41
sg7
(lp42
I2260
aI613
aI2283
aI636
asg9
I0
sa(dp43
g2
I0
sg3
g4
sg5
S'noteheadBlack'
p44
sg7
(lp45
I2260
aI567
aI2283
aI590
asg9
I0
sa(dp46
g2
I0
sg3
g4
sg5
S'augmentationDot'
p47
sg7
(lp48
I2304
aI427
aI2314
aI437
asg9
I0
sa(dp49
g2
I0
sg3
g4
sg5
S'noteheadBlack'
p50
sg7
(lp51
I3078
aI636
aI3101
aI658
asg9
I0
sa(dp52
g2
I0
sg3
g4
sg5
S'noteheadBlack'
p53
sg7
(lp54
I3078
aI567
aI3101
aI590
asg9
I0
sa(dp55
g2
I0
sg3
g4
sg5
S'noteheadBlack'
p56
sg7
(lp57
I3078
aI613
aI3101
aI636
asg9
I0
sa(dp58
g2
I0
sg3
g4
sg5
S'noteheadBlack'
p59
sg7
(lp60
I2604
aI636
aI2627
aI658
asg9
I0
sa(dp61
g2
I0
sg3
g4
sg5
S'noteheadBlack'
p62
sg7
(lp63
I2604
aI613
aI2627
aI636
asg9
I0
sa(dp64
g2
I0
sg3
g4
sg5
S'noteheadBlack'
p65
sg7
(lp66
I2604
aI567
aI2627
aI590
asg9
I0
sa(dp67
g2
I0
sg3
g4
sg5
S'noteheadBlack'
p68
sg7
(lp69
I2734
aI636
aI2757
aI658
asg9
I0
sa(dp70
g2
I0
sg3
g4
sg5
S'noteheadBlack'
p71
sg7
(lp72
I2734
aI613
aI2757
aI636
asg9
I0
sa(dp73
g2
I0
sg3
g4
sg5
S'noteheadBlack'
p74
sg7
(lp75
I2734
aI567
aI2757
aI590
asg9
I0
sa(dp76
g2
I0
sg3
g4
sg5
S'accidentalFlat'
p77
sg7
(lp78
I2704
aI545
aI2726
aI596
asg9
I0
sa(dp79
g2
I0
sg3
g4
sg5
S'noteheadBlack'
p80
sg7
(lp81
I2849
aI636
aI2872
aI658
asg9
I0
sa(dp82
g2
I0
sg3
g4
sg5
S'noteheadBlack'
p83
sg7
(lp84
I2849
aI613
aI2872
aI636
asg9
I0
sa(dp85
g2
I0
sg3
g4
sg5
S'noteheadBlack'
p86
sg7
(lp87
I2849
aI567
aI2872
aI590
asg9
I0
sa(dp88
g2
I0
sg3
g4
sg5
S'noteheadBlack'
p89
sg7
(lp90
I2963
aI421
aI2986
aI443
asg9
I0
sa(dp91
g2
I0
sg3
g4
sg5
S'noteheadBlack'
p92
sg7
(lp93
I2963
aI636
aI2986
aI658
asg9
I0
sa(dp94
g2
I0
sg3
g4
sg5
S'noteheadBlack'
p95
sg7
(lp96
I2963
aI613
aI2986
aI636
asg9
I0
sa(dp97
g2
I0
sg3
g4
sg5
S'noteheadBlack'
p98
sg7
(lp99
I2963
aI567
aI2986
aI590
asg9
I0
sa(dp100
g2
I0
sg3
g4
sg5
S'noteheadBlack'
p101
sg7
(lp102
I1295
aI624
aI1318
aI647
asg9
I0
sa(dp103
g2
I0
sg3
g4
sg5
S'noteheadHalf'
p104
sg7
(lp105
I1295
aI432
aI1329
aI455
asg9
I0
sa(dp106
g2
I0
sg3
g4
sg5
S'noteheadBlack'
p107
sg7
(lp108
I1168
aI432
aI1192
aI455
asg9
I0
sa(dp109
g2
I0
sg3
g4
sg5
S'noteheadBlack'
p110
sg7
(lp111
I1295
aI601
aI1318
aI624
asg9
I0
sa(dp112
g2
I0
sg3
g4
sg5
S'augmentationDot'
p113
sg7
(lp114
I1028
aI519
aI1038
aI528
asg9
I0
sa(dp115
g2
I0
sg3
g4
sg5
S'noteheadBlack'
p116
sg7
(lp117
I995
aI512
aI1018
aI535
asg9
I0
sa(dp118
g2
I0
sg3
g4
sg5
S'noteheadBlack'
p119
sg7
(lp120
I1295
aI567
aI1318
aI590
asg9
I0
sa(dp121
g2
I0
sg3
g4
sg5
S'augmentationDot'
p122
sg7
(lp123
I1339
aI427
aI1349
aI437
asg9
I0
sa(dp124
g2
I0
sg3
g4
sg5
S'noteheadBlack'
p125
sg7
(lp126
I1982
aI567
aI2005
aI590
asg9
I0
sa(dp127
g2
I0
sg3
g4
sg5
S'fClef'
p128
sg7
(lp129
I417
aI628
aI476
aI687
asg9
I0
sa(dp130
g2
I0
sg3
g4
sg5
S'timeSigCutCommon'
p131
sg7
(lp132
I544
aI409
aI590
aI476
asg9
I0
sa(dp133
g2
I0
sg3
g4
sg5
S'keySharp'
p134
sg7
(lp135
I497
aI368
aI518
aI427
asg9
I0
sa(dp136
g2
I0
sg3
g4
sg5
S'gClef'
p137
sg7
(lp138
I417
aI377
aI476
aI514
asg9
I0
sa(dp139
g2
I0
sg3
g4
sg5
S'restHalf'
p140
sg7
(lp141
I636
aI430
aI667
aI443
asg9
I0
sa(dp142
g2
I0
sg3
g4
sg5
S'keySharp'
p143
sg7
(lp144
I497
aI617
aI518
aI676
asg9
I0
sa(dp145
g2
I0
sg3
g4
sg5
S'brace'
p146
sg7
(lp147
I367
aI397
aI391
aI717
asg9
I0
sa(dp148
g2
I0
sg3
g4
sg5
S'restWhole'
p149
sg7
(lp150
I899
aI647
aI931
aI660
asg9
I0
sa(dp151
g2
I0
sg3
g4
sg5
S'timeSigCutCommon'
p152
sg7
(lp153
I544
aI636
aI590
aI703
asg9
I0
sa(dp154
g2
I0
sg3
g4
sg5
S'augmentationDot'
p155
sg7
(lp156
I677
aI427
aI687
aI437
asg9
I0
sa(dp157
g2
I0
sg3
g4
sg5
S'noteheadBlack'
p158
sg7
(lp159
I1639
aI567
aI1662
aI590
asg9
I0
sa(dp160
g2
I0
sg3
g4
sg5
S'noteheadBlack'
p161
sg7
(lp162
I1753
aI567
aI1776
aI590
asg9
I0
sa(dp163
g2
I0
sg3
g4
sg5
S'noteheadBlack'
p164
sg7
(lp165
I1753
aI601
aI1776
aI624
asg9
I0
sa(dp166
g2
I0
sg3
g4
sg5
S'noteheadBlack'
p167
sg7
(lp168
I1753
aI624
aI1776
aI647
asg9
I0
sa(dp169
g2
I0
sg3
g4
sg5
S'noteheadBlack'
p170
sg7
(lp171
I1639
aI601
aI1662
aI624
asg9
I0
sa(dp172
g2
I0
sg3
g4
sg5
S'noteheadBlack'
p173
sg7
(lp174
I1639
aI624
aI1662
aI647
asg9
I0
sa(dp175
g2
I0
sg3
g4
sg5
S'noteheadBlack'
p176
sg7
(lp177
I1868
aI624
aI1891
aI647
asg9
I0
sa(dp178
g2
I0
sg3
g4
sg5
S'noteheadBlack'
p179
sg7
(lp180
I1868
aI601
aI1891
aI624
asg9
I0
sa(dp181
g2
I0
sg3
g4
sg5
S'noteheadBlack'
p182
sg7
(lp183
I1868
aI567
aI1891
aI590
asg9
I0
sa(dp184
g2
I0
sg3
g4
sg5
S'noteheadBlack'
p185
sg7
(lp186
I1982
aI421
aI2005
aI443
asg9
I0
sa(dp187
g2
I0
sg3
g4
sg5
S'noteheadBlack'
p188
sg7
(lp189
I1982
aI624
aI2005
aI647
asg9
I0
sa(dp190
g2
I0
sg3
g4
sg5
S'noteheadBlack'
p191
sg7
(lp192
I1982
aI601
aI2005
aI624
asg9
I0
sa(dp193
g2
I0
sg3
g4
sg5
S'noteheadBlack'
p194
sg7
(lp195
I1524
aI567
aI1547
aI590
asg9
I0
sa(dp196
g2
I0
sg3
g4
sg5
S'noteheadBlack'
p197
sg7
(lp198
I1410
aI624
aI1433
aI647
asg9
I0
sa(dp199
g2
I0
sg3
g4
sg5
S'noteheadBlack'
p200
sg7
(lp201
I1410
aI601
aI1433
aI624
asg9
I0
sa(dp202
g2
I0
sg3
g4
sg5
S'noteheadBlack'
p203
sg7
(lp204
I1410
aI567
aI1433
aI590
asg9
I0
sa(dp205
g2
I0
sg3
g4
sg5
S'noteheadBlack'
p206
sg7
(lp207
I1524
aI601
aI1547
aI624
asg9
I0
sa(dp208
g2
I0
sg3
g4
sg5
S'noteheadBlack'
p209
sg7
(lp210
I1524
aI624
aI1547
aI647
asg9
I0
sa(dp211
g2
I0
sg3
g4
sg5
S'noteheadBlack'
p212
sg7
(lp213
I2287
aI1342
aI2310
aI1365
asg9
I0
sa(dp214
g2
I0
sg3
g4
sg5
S'noteheadBlack'
p215
sg7
(lp216
I2287
aI1377
aI2310
aI1400
asg9
I0
sa(dp217
g2
I0
sg3
g4
sg5
S'accidentalSharp'
p218
sg7
(lp219
I1989
aI1324
aI2010
aI1383
asg9
I0
sa(dp220
g2
I0
sg3
g4
sg5
S'noteheadBlack'
p221
sg7
(lp222
I2287
aI1400
aI2310
aI1422
asg9
I0
sa(dp223
g2
I0
sg3
g4
sg5
S'noteheadHalf'
p224
sg7
(lp225
I2287
aI1196
aI2321
aI1219
asg9
I0
sa(dp226
g2
I0
sg3
g4
sg5
S'noteheadBlack'
p227
sg7
(lp228
I2129
aI1342
aI2152
aI1365
asg9
I0
sa(dp229
g2
I0
sg3
g4
sg5
S'noteheadBlack'
p230
sg7
(lp231
I2129
aI1377
aI2152
aI1400
asg9
I0
sa(dp232
g2
I0
sg3
g4
sg5
S'noteheadBlack'
p233
sg7
(lp234
I2129
aI1400
aI2152
aI1422
asg9
I0
sa(dp235
g2
I0
sg3
g4
sg5
S'augmentationDot'
p236
sg7
(lp237
I2331
aI1203
aI2341
aI1212
asg9
I0
sa(dp238
g2
I0
sg3
g4
sg5
S'noteheadBlack'
p239
sg7
(lp240
I1660
aI1400
aI1683
aI1422
asg9
I0
sa(dp241
g2
I0
sg3
g4
sg5
S'noteheadBlack'
p242
sg7
(lp243
I1782
aI1377
aI1806
aI1400
asg9
I0
sa(dp244
g2
I0
sg3
g4
sg5
S'noteheadBlack'
p245
sg7
(lp246
I1893
aI1400
aI1916
aI1422
asg9
I0
sa(dp247
g2
I0
sg3
g4
sg5
S'accidentalNatural'
p248
sg7
(lp249
I1757
aI1356
aI1774
aI1418
asg9
I0
sa(dp250
g2
I0
sg3
g4
sg5
S'noteheadBlack'
p251
sg7
(lp252
I1782
aI1331
aI1806
aI1354
asg9
I0
sa(dp253
g2
I0
sg3
g4
sg5
S'noteheadBlack'
p254
sg7
(lp255
I1893
aI1377
aI1916
aI1400
asg9
I0
sa(dp256
g2
I0
sg3
g4
sg5
S'noteheadBlack'
p257
sg7
(lp258
I1782
aI1400
aI1806
aI1422
asg9
I0
sa(dp259
g2
I0
sg3
g4
sg5
S'noteheadBlack'
p260
sg7
(lp261
I1660
aI1331
aI1683
aI1354
asg9
I0
sa(dp262
g2
I0
sg3
g4
sg5
S'noteheadBlack'
p263
sg7
(lp264
I1660
aI1377
aI1683
aI1400
asg9
I0
sa(dp265
g2
I0
sg3
g4
sg5
S'noteheadBlack'
p266
sg7
(lp267
I2019
aI1342
aI2042
aI1365
asg9
I0
sa(dp268
g2
I0
sg3
g4
sg5
S'accidentalFlat'
p269
sg7
(lp270
I1989
aI1162
aI2010
aI1214
asg9
I0
sa(dp271
g2
I0
sg3
g4
sg5
S'noteheadBlack'
p272
sg7
(lp273
I2019
aI1377
aI2042
aI1400
asg9
I0
sa(dp274
g2
I0
sg3
g4
sg5
S'noteheadBlack'
p275
sg7
(lp276
I2019
aI1400
aI2042
aI1422
asg9
I0
sa(dp277
g2
I0
sg3
g4
sg5
S'noteheadBlack'
p278
sg7
(lp279
I2019
aI1184
aI2042
aI1207
asg9
I0
sa(dp280
g2
I0
sg3
g4
sg5
S'noteheadBlack'
p281
sg7
(lp282
I1893
aI1331
aI1916
aI1354
asg9
I0
sa(dp283
g2
I0
sg3
g4
sg5
S'noteheadBlack'
p284
sg7
(lp285
I3082
aI1342
aI3105
aI1365
asg9
I0
sa(dp286
g2
I0
sg3
g4
sg5
S'noteheadBlack'
p287
sg7
(lp288
I3082
aI1388
aI3105
aI1411
asg9
I0
sa(dp289
g2
I0
sg3
g4
sg5
S'noteheadBlack'
p290
sg7
(lp291
I3060
aI1400
aI3084
aI1422
asg9
I0
sa(dp292
g2
I0
sg3
g4
sg5
S'noteheadBlack'
p293
sg7
(lp294
I2966
aI1342
aI2989
aI1365
asg9
I0
sa(dp295
g2
I0
sg3
g4
sg5
S'noteheadBlack'
p296
sg7
(lp297
I2966
aI1388
aI2989
aI1411
asg9
I0
sa(dp298
g2
I0
sg3
g4
sg5
S'noteheadBlack'
p299
sg7
(lp300
I2944
aI1400
aI2968
aI1422
asg9
I0
sa(dp301
g2
I0
sg3
g4
sg5
S'noteheadBlack'
p302
sg7
(lp303
I2966
aI1184
aI2989
aI1207
asg9
I0
sa(dp304
g2
I0
sg3
g4
sg5
S'noteheadBlack'
p305
sg7
(lp306
I2618
aI1377
aI2642
aI1400
asg9
I0
sa(dp307
g2
I0
sg3
g4
sg5
S'noteheadBlack'
p308
sg7
(lp309
I2618
aI1400
aI2642
aI1422
asg9
I0
sa(dp310
g2
I0
sg3
g4
sg5
S'noteheadBlack'
p311
sg7
(lp312
I2508
aI1342
aI2531
aI1365
asg9
I0
sa(dp313
g2
I0
sg3
g4
sg5
S'noteheadBlack'
p314
sg7
(lp315
I2508
aI1377
aI2531
aI1400
asg9
I0
sa(dp316
g2
I0
sg3
g4
sg5
S'noteheadBlack'
p317
sg7
(lp318
I2508
aI1400
aI2531
aI1422
asg9
I0
sa(dp319
g2
I0
sg3
g4
sg5
S'noteheadBlack'
p320
sg7
(lp321
I2618
aI1342
aI2642
aI1365
asg9
I0
sa(dp322
g2
I0
sg3
g4
sg5
S'noteheadBlack'
p323
sg7
(lp324
I2397
aI1342
aI2421
aI1365
asg9
I0
sa(dp325
g2
I0
sg3
g4
sg5
S'noteheadBlack'
p326
sg7
(lp327
I2397
aI1377
aI2421
aI1400
asg9
I0
sa(dp328
g2
I0
sg3
g4
sg5
S'noteheadBlack'
p329
sg7
(lp330
I2397
aI1400
aI2421
aI1422
asg9
I0
sa(dp331
g2
I0
sg3
g4
sg5
S'noteheadBlack'
p332
sg7
(lp333
I2850
aI1342
aI2873
aI1365
asg9
I0
sa(dp334
g2
I0
sg3
g4
sg5
S'noteheadBlack'
p335
sg7
(lp336
I2850
aI1388
aI2873
aI1411
asg9
I0
sa(dp337
g2
I0
sg3
g4
sg5
S'noteheadBlack'
p338
sg7
(lp339
I2829
aI1400
aI2852
aI1422
asg9
I0
sa(dp340
g2
I0
sg3
g4
sg5
S'noteheadBlack'
p341
sg7
(lp342
I2734
aI1342
aI2757
aI1365
asg9
I0
sa(dp343
g2
I0
sg3
g4
sg5
S'noteheadBlack'
p344
sg7
(lp345
I2734
aI1388
aI2757
aI1411
asg9
I0
sa(dp346
g2
I0
sg3
g4
sg5
S'noteheadBlack'
p347
sg7
(lp348
I2713
aI1400
aI2736
aI1422
asg9
I0
sa(dp349
g2
I0
sg3
g4
sg5
S'noteheadBlack'
p350
sg7
(lp351
I670
aI1365
aI693
aI1388
asg9
I0
sa(dp352
g2
I0
sg3
g4
sg5
S'noteheadBlack'
p353
sg7
(lp354
I670
aI1388
aI693
aI1411
asg9
I0
sa(dp355
g2
I0
sg3
g4
sg5
S'noteheadBlack'
p356
sg7
(lp357
I559
aI1320
aI583
aI1342
asg9
I0
sa(dp358
g2
I0
sg3
g4
sg5
S'noteheadBlack'
p359
sg7
(lp360
I559
aI1365
aI583
aI1388
asg9
I0
sa(dp361
g2
I0
sg3
g4
sg5
S'noteheadBlack'
p362
sg7
(lp363
I559
aI1388
aI583
aI1411
asg9
I0
sa(dp364
g2
I0
sg3
g4
sg5
S'noteheadBlack'
p365
sg7
(lp366
I670
aI1320
aI693
aI1342
asg9
I0
sa(dp367
g2
I0
sg3
g4
sg5
S'noteheadBlack'
p368
sg7
(lp369
I449
aI1320
aI472
aI1342
asg9
I0
sa(dp370
g2
I0
sg3
g4
sg5
S'noteheadBlack'
p371
sg7
(lp372
I449
aI1365
aI472
aI1388
asg9
I0
sa(dp373
g2
I0
sg3
g4
sg5
S'noteheadBlack'
p374
sg7
(lp375
I449
aI1388
aI472
aI1411
asg9
I0
sa(dp376
g2
I0
sg3
g4
sg5
S'accidentalFlat'
p377
sg7
(lp378
I309
aI1297
aI330
aI1349
asg9
I0
sa(dp379
g2
I0
sg3
g4
sg5
S'noteheadBlack'
p380
sg7
(lp381
I891
aI1331
aI914
aI1354
asg9
I0
sa(dp382
g2
I0
sg3
g4
sg5
S'noteheadBlack'
p383
sg7
(lp384
I891
aI1365
aI914
aI1388
asg9
I0
sa(dp385
g2
I0
sg3
g4
sg5
S'accidentalNatural'
p386
sg7
(lp387
I313
aI1367
aI330
aI1430
asg9
I0
sa(dp388
g2
I0
sg3
g4
sg5
S'noteheadBlack'
p389
sg7
(lp390
I780
aI1331
aI803
aI1354
asg9
I0
sa(dp391
g2
I0
sg3
g4
sg5
S'noteheadBlack'
p392
sg7
(lp393
I780
aI1365
aI803
aI1388
asg9
I0
sa(dp394
g2
I0
sg3
g4
sg5
S'noteheadBlack'
p395
sg7
(lp396
I780
aI1388
aI803
aI1411
asg9
I0
sa(dp397
g2
I0
sg3
g4
sg5
S'keySharp'
p398
sg7
(lp399
I258
aI1370
aI279
aI1428
asg9
I0
sa(dp400
g2
I0
sg3
g4
sg5
S'fClef'
p401
sg7
(lp402
I178
aI1380
aI237
aI1440
asg9
I0
sa(dp403
g2
I0
sg3
g4
sg5
S'keySharp'
p404
sg7
(lp405
I258
aI1120
aI279
aI1179
asg9
I0
sa(dp406
g2
I0
sg3
g4
sg5
S'gClef'
p407
sg7
(lp408
I178
aI1130
aI237
aI1267
asg9
I0
sa(dp409
g2
I0
sg3
g4
sg5
S'brace'
p410
sg7
(lp411
I127
aI1149
aI151
aI1469
asg9
I0
sa(dp412
g2
I0
sg3
g4
sg5
S'noteheadBlack'
p413
sg7
(lp414
I891
aI1388
aI914
aI1411
asg9
I0
sa(dp415
g2
I0
sg3
g4
sg5
S'augmentationDot'
p416
sg7
(lp417
I382
aI1180
aI392
aI1189
asg9
I0
sa(dp418
g2
I0
sg3
g4
sg5
S'noteheadBlack'
p419
sg7
(lp420
I338
aI1320
aI362
aI1342
asg9
I0
sa(dp421
g2
I0
sg3
g4
sg5
S'noteheadBlack'
p422
sg7
(lp423
I338
aI1365
aI362
aI1388
asg9
I0
sa(dp424
g2
I0
sg3
g4
sg5
S'noteheadBlack'
p425
sg7
(lp426
I338
aI1388
aI362
aI1411
asg9
I0
sa(dp427
g2
I0
sg3
g4
sg5
S'noteheadHalf'
p428
sg7
(lp429
I338
aI1184
aI373
aI1208
asg9
I0
sa(dp430
g2
I0
sg3
g4
sg5
S'noteheadBlack'
p431
sg7
(lp432
I1439
aI1331
aI1462
aI1354
asg9
I0
sa(dp433
g2
I0
sg3
g4
sg5
S'noteheadBlack'
p434
sg7
(lp435
I1439
aI1377
aI1462
aI1400
asg9
I0
sa(dp436
g2
I0
sg3
g4
sg5
S'augmentationDot'
p437
sg7
(lp438
I1372
aI1180
aI1382
aI1189
asg9
I0
sa(dp439
g2
I0
sg3
g4
sg5
S'noteheadBlack'
p440
sg7
(lp441
I1329
aI1331
aI1352
aI1354
asg9
I0
sa(dp442
g2
I0
sg3
g4
sg5
S'noteheadBlack'
p443
sg7
(lp444
I1329
aI1377
aI1352
aI1400
asg9
I0
sa(dp445
g2
I0
sg3
g4
sg5
S'noteheadBlack'
p446
sg7
(lp447
I1329
aI1400
aI1352
aI1422
asg9
I0
sa(dp448
g2
I0
sg3
g4
sg5
S'noteheadBlack'
p449
sg7
(lp450
I1439
aI1400
aI1462
aI1422
asg9
I0
sa(dp451
g2
I0
sg3
g4
sg5
S'accidentalSharp'
p452
sg7
(lp453
I1300
aI1358
aI1320
aI1417
asg9
I0
sa(dp454
g2
I0
sg3
g4
sg5
S'noteheadHalf'
p455
sg7
(lp456
I1329
aI1184
aI1363
aI1208
asg9
I0
sa(dp457
g2
I0
sg3
g4
sg5
S'noteheadBlack'
p458
sg7
(lp459
I1038
aI1331
aI1061
aI1354
asg9
I0
sa(dp460
g2
I0
sg3
g4
sg5
S'noteheadBlack'
p461
sg7
(lp462
I1038
aI1377
aI1061
aI1400
asg9
I0
sa(dp463
g2
I0
sg3
g4
sg5
S'noteheadBlack'
p464
sg7
(lp465
I1016
aI1388
aI1040
aI1411
asg9
I0
sa(dp466
g2
I0
sg3
g4
sg5
S'noteheadBlack'
p467
sg7
(lp468
I1038
aI1173
aI1061
aI1196
asg9
I0
sa(dp469
g2
I0
sg3
g4
sg5
S'accidentalSharp'
p470
sg7
(lp471
I987
aI1358
aI1008
aI1417
asg9
I0
sa(dp472
g2
I0
sg3
g4
sg5
S'noteheadBlack'
p473
sg7
(lp474
I1550
aI1400
aI1573
aI1422
asg9
I0
sa(dp475
g2
I0
sg3
g4
sg5
S'noteheadBlack'
p476
sg7
(lp477
I1154
aI1331
aI1177
aI1354
asg9
I0
sa(dp478
g2
I0
sg3
g4
sg5
S'noteheadBlack'
p479
sg7
(lp480
I1154
aI1377
aI1177
aI1400
asg9
I0
sa(dp481
g2
I0
sg3
g4
sg5
S'noteheadBlack'
p482
sg7
(lp483
I1132
aI1388
aI1156
aI1411
asg9
I0
sa(dp484
g2
I0
sg3
g4
sg5
S'noteheadBlack'
p485
sg7
(lp486
I1550
aI1377
aI1573
aI1400
asg9
I0
sa(dp487
g2
I0
sg3
g4
sg5
S'noteheadBlack'
p488
sg7
(lp489
I1550
aI1331
aI1573
aI1354
asg9
I0
sa(dp490
g2
I0
sg3
g4
sg5
S'augmentationDot'
p491
sg7
(lp492
I2339
aI1955
aI2349
aI1965
asg9
I0
sa(dp493
g2
I0
sg3
g4
sg5
S'noteheadBlack'
p494
sg7
(lp495
I2295
aI2095
aI2318
aI2118
asg9
I0
sa(dp496
g2
I0
sg3
g4
sg5
S'noteheadBlack'
p497
sg7
(lp498
I2295
aI2141
aI2318
aI2163
asg9
I0
sa(dp499
g2
I0
sg3
g4
sg5
S'noteheadBlack'
p500
sg7
(lp501
I2295
aI2163
aI2318
aI2186
asg9
I0
sa(dp502
g2
I0
sg3
g4
sg5
S'noteheadHalf'
p503
sg7
(lp504
I2295
aI1948
aI2329
aI1972
asg9
I0
sa(dp505
g2
I0
sg3
g4
sg5
S'noteheadBlack'
p506
sg7
(lp507
I2156
aI1948
aI2179
aI1971
asg9
I0
sa(dp508
g2
I0
sg3
g4
sg5
S'accidentalNatural'
p509
sg7
(lp510
I2269
aI2120
aI2287
aI2182
asg9
I0
sa(dp511
g2
I0
sg3
g4
sg5
S'noteheadBlack'
p512
sg7
(lp513
I1986
aI1937
aI2009
aI1960
asg9
I0
sa(dp514
g2
I0
sg3
g4
sg5
S'noteheadBlack'
p515
sg7
(lp516
I1874
aI2095
aI1897
aI2118
asg9
I0
sa(dp517
g2
I0
sg3
g4
sg5
S'noteheadBlack'
p518
sg7
(lp519
I1874
aI2141
aI1897
aI2163
asg9
I0
sa(dp520
g2
I0
sg3
g4
sg5
S'noteheadBlack'
p521
sg7
(lp522
I1874
aI2163
aI1897
aI2186
asg9
I0
sa(dp523
g2
I0
sg3
g4
sg5
S'noteheadBlack'
p524
sg7
(lp525
I1986
aI2163
aI2009
aI2186
asg9
I0
sa(dp526
g2
I0
sg3
g4
sg5
S'noteheadBlack'
p527
sg7
(lp528
I1761
aI2095
aI1785
aI2118
asg9
I0
sa(dp529
g2
I0
sg3
g4
sg5
S'noteheadBlack'
p530
sg7
(lp531
I1761
aI2141
aI1785
aI2163
asg9
I0
sa(dp532
g2
I0
sg3
g4
sg5
S'noteheadBlack'
p533
sg7
(lp534
I1761
aI2163
aI1785
aI2186
asg9
I0
sa(dp535
g2
I0
sg3
g4
sg5
S'noteheadBlack'
p536
sg7
(lp537
I2098
aI2095
aI2121
aI2118
asg9
I0
sa(dp538
g2
I0
sg3
g4
sg5
S'noteheadBlack'
p539
sg7
(lp540
I2098
aI2141
aI2121
aI2163
asg9
I0
sa(dp541
g2
I0
sg3
g4
sg5
S'noteheadBlack'
p542
sg7
(lp543
I2098
aI2163
aI2121
aI2186
asg9
I0
sa(dp544
g2
I0
sg3
g4
sg5
S'augmentationDot'
p545
sg7
(lp546
I2019
aI1932
aI2029
aI1942
asg9
I0
sa(dp547
g2
I0
sg3
g4
sg5
S'noteheadBlack'
p548
sg7
(lp549
I1986
aI2095
aI2009
aI2118
asg9
I0
sa(dp550
g2
I0
sg3
g4
sg5
S'noteheadBlack'
p551
sg7
(lp552
I1986
aI2141
aI2009
aI2163
asg9
I0
sa(dp553
g2
I0
sg3
g4
sg5
S'noteheadBlack'
p554
sg7
(lp555
I3080
aI2106
aI3103
aI2129
asg9
I0
sa(dp556
g2
I0
sg3
g4
sg5
S'noteheadBlack'
p557
sg7
(lp558
I3080
aI2141
aI3103
aI2163
asg9
I0
sa(dp559
g2
I0
sg3
g4
sg5
S'noteheadBlack'
p560
sg7
(lp561
I3080
aI2163
aI3103
aI2186
asg9
I0
sa(dp562
g2
I0
sg3
g4
sg5
S'accidentalSharp'
p563
sg7
(lp564
I2939
aI1941
aI2960
aI2000
asg9
I0
sa(dp565
g2
I0
sg3
g4
sg5
S'noteheadBlack'
p566
sg7
(lp567
I2968
aI2106
aI2991
aI2129
asg9
I0
sa(dp568
g2
I0
sg3
g4
sg5
S'noteheadBlack'
p569
sg7
(lp570
I2968
aI2141
aI2991
aI2163
asg9
I0
sa(dp571
g2
I0
sg3
g4
sg5
S'noteheadBlack'
p572
sg7
(lp573
I2968
aI2163
aI2991
aI2186
asg9
I0
sa(dp574
g2
I0
sg3
g4
sg5
S'noteheadBlack'
p575
sg7
(lp576
I2519
aI2141
aI2543
aI2163
asg9
I0
sa(dp577
g2
I0
sg3
g4
sg5
S'noteheadBlack'
p578
sg7
(lp579
I2631
aI2095
aI2655
aI2118
asg9
I0
sa(dp580
g2
I0
sg3
g4
sg5
S'noteheadBlack'
p581
sg7
(lp582
I2631
aI2141
aI2655
aI2163
asg9
I0
sa(dp583
g2
I0
sg3
g4
sg5
S'noteheadBlack'
p584
sg7
(lp585
I2631
aI2163
aI2655
aI2186
asg9
I0
sa(dp586
g2
I0
sg3
g4
sg5
S'noteheadBlack'
p587
sg7
(lp588
I2519
aI2095
aI2543
aI2118
asg9
I0
sa(dp589
g2
I0
sg3
g4
sg5
S'noteheadBlack'
p590
sg7
(lp591
I2519
aI2163
aI2543
aI2186
asg9
I0
sa(dp592
g2
I0
sg3
g4
sg5
S'noteheadBlack'
p593
sg7
(lp594
I2407
aI2095
aI2430
aI2118
asg9
I0
sa(dp595
g2
I0
sg3
g4
sg5
S'noteheadBlack'
p596
sg7
(lp597
I2407
aI2141
aI2430
aI2163
asg9
I0
sa(dp598
g2
I0
sg3
g4
sg5
S'noteheadBlack'
p599
sg7
(lp600
I2407
aI2163
aI2430
aI2186
asg9
I0
sa(dp601
g2
I0
sg3
g4
sg5
S'noteheadBlack'
p602
sg7
(lp603
I2968
aI1960
aI2991
aI1983
asg9
I0
sa(dp604
g2
I0
sg3
g4
sg5
S'noteheadBlack'
p605
sg7
(lp606
I2856
aI2106
aI2879
aI2129
asg9
I0
sa(dp607
g2
I0
sg3
g4
sg5
S'noteheadBlack'
p608
sg7
(lp609
I2856
aI2141
aI2879
aI2163
asg9
I0
sa(dp610
g2
I0
sg3
g4
sg5
S'noteheadBlack'
p611
sg7
(lp612
I2856
aI2163
aI2879
aI2186
asg9
I0
sa(dp613
g2
I0
sg3
g4
sg5
S'noteheadBlack'
p614
sg7
(lp615
I2744
aI2106
aI2767
aI2129
asg9
I0
sa(dp616
g2
I0
sg3
g4
sg5
S'noteheadBlack'
p617
sg7
(lp618
I2744
aI2141
aI2767
aI2163
asg9
I0
sa(dp619
g2
I0
sg3
g4
sg5
S'noteheadBlack'
p620
sg7
(lp621
I2744
aI2163
aI2767
aI2186
asg9
I0
sa(dp622
g2
I0
sg3
g4
sg5
S'noteheadBlack'
p623
sg7
(lp624
I571
aI2141
aI594
aI2163
asg9
I0
sa(dp625
g2
I0
sg3
g4
sg5
S'noteheadBlack'
p626
sg7
(lp627
I688
aI2095
aI712
aI2118
asg9
I0
sa(dp628
g2
I0
sg3
g4
sg5
S'noteheadBlack'
p629
sg7
(lp630
I688
aI2141
aI712
aI2163
asg9
I0
sa(dp631
g2
I0
sg3
g4
sg5
S'noteheadBlack'
p632
sg7
(lp633
I667
aI2152
aI690
aI2175
asg9
I0
sa(dp634
g2
I0
sg3
g4
sg5
S'noteheadBlack'
p635
sg7
(lp636
I571
aI2095
aI594
aI2118
asg9
I0
sa(dp637
g2
I0
sg3
g4
sg5
S'noteheadBlack'
p638
sg7
(lp639
I549
aI2152
aI573
aI2175
asg9
I0
sa(dp640
g2
I0
sg3
g4
sg5
S'noteheadBlack'
p641
sg7
(lp642
I453
aI2095
aI477
aI2118
asg9
I0
sa(dp643
g2
I0
sg3
g4
sg5
S'noteheadBlack'
p644
sg7
(lp645
I453
aI2141
aI477
aI2163
asg9
I0
sa(dp646
g2
I0
sg3
g4
sg5
S'noteheadBlack'
p647
sg7
(lp648
I432
aI2152
aI455
aI2175
asg9
I0
sa(dp649
g2
I0
sg3
g4
sg5
S'noteheadBlack'
p650
sg7
(lp651
I928
aI2095
aI951
aI2118
asg9
I0
sa(dp652
g2
I0
sg3
g4
sg5
S'noteheadBlack'
p653
sg7
(lp654
I928
aI2141
aI951
aI2163
asg9
I0
sa(dp655
g2
I0
sg3
g4
sg5
S'accidentalSharp'
p656
sg7
(lp657
I787
aI2145
aI808
aI2204
asg9
I0
sa(dp658
g2
I0
sg3
g4
sg5
S'noteheadBlack'
p659
sg7
(lp660
I816
aI2095
aI839
aI2118
asg9
I0
sa(dp661
g2
I0
sg3
g4
sg5
S'noteheadBlack'
p662
sg7
(lp663
I816
aI2141
aI839
aI2163
asg9
I0
sa(dp664
g2
I0
sg3
g4
sg5
S'noteheadBlack'
p665
sg7
(lp666
I816
aI2163
aI839
aI2186
asg9
I0
sa(dp667
g2
I0
sg3
g4
sg5
S'fClef'
p668
sg7
(lp669
I178
aI2133
aI237
aI2192
asg9
I0
sa(dp670
g2
I0
sg3
g4
sg5
S'keySharp'
p671
sg7
(lp672
I258
aI1873
aI279
aI1932
asg9
I0
sa(dp673
g2
I0
sg3
g4
sg5
S'gClef'
p674
sg7
(lp675
I178
aI1882
aI237
aI2019
asg9
I0
sa(dp676
g2
I0
sg3
g4
sg5
S'keySharp'
p677
sg7
(lp678
I258
aI2122
aI279
aI2181
asg9
I0
sa(dp679
g2
I0
sg3
g4
sg5
S'brace'
p680
sg7
(lp681
I127
aI1902
aI151
aI2222
asg9
I0
sa(dp682
g2
I0
sg3
g4
sg5
S'noteheadBlack'
p683
sg7
(lp684
I336
aI2141
aI359
aI2163
asg9
I0
sa(dp685
g2
I0
sg3
g4
sg5
S'augmentationDot'
p686
sg7
(lp687
I379
aI1955
aI389
aI1965
asg9
I0
sa(dp688
g2
I0
sg3
g4
sg5
S'noteheadBlack'
p689
sg7
(lp690
I336
aI2095
aI359
aI2118
asg9
I0
sa(dp691
g2
I0
sg3
g4
sg5
S'noteheadBlack'
p692
sg7
(lp693
I928
aI2163
aI951
aI2186
asg9
I0
sa(dp694
g2
I0
sg3
g4
sg5
S'noteheadBlack'
p695
sg7
(lp696
I314
aI2152
aI338
aI2175
asg9
I0
sa(dp697
g2
I0
sg3
g4
sg5
S'noteheadHalf'
p698
sg7
(lp699
I336
aI1948
aI370
aI1972
asg9
I0
sa(dp700
g2
I0
sg3
g4
sg5
S'noteheadBlack'
p701
sg7
(lp702
I1537
aI2163
aI1560
aI2186
asg9
I0
sa(dp703
g2
I0
sg3
g4
sg5
S'augmentationDot'
p704
sg7
(lp705
I1357
aI1955
aI1367
aI1965
asg9
I0
sa(dp706
g2
I0
sg3
g4
sg5
S'noteheadBlack'
p707
sg7
(lp708
I1537
aI2141
aI1560
aI2163
asg9
I0
sa(dp709
g2
I0
sg3
g4
sg5
S'noteheadBlack'
p710
sg7
(lp711
I1537
aI2095
aI1560
aI2118
asg9
I0
sa(dp712
g2
I0
sg3
g4
sg5
S'noteheadBlack'
p713
sg7
(lp714
I1425
aI2095
aI1448
aI2118
asg9
I0
sa(dp715
g2
I0
sg3
g4
sg5
S'noteheadBlack'
p716
sg7
(lp717
I1425
aI2141
aI1448
aI2163
asg9
I0
sa(dp718
g2
I0
sg3
g4
sg5
S'noteheadBlack'
p719
sg7
(lp720
I1425
aI2163
aI1448
aI2186
asg9
I0
sa(dp721
g2
I0
sg3
g4
sg5
S'noteheadBlack'
p722
sg7
(lp723
I1313
aI2095
aI1336
aI2118
asg9
I0
sa(dp724
g2
I0
sg3
g4
sg5
S'noteheadBlack'
p725
sg7
(lp726
I1649
aI2163
aI1673
aI2186
asg9
I0
sa(dp727
g2
I0
sg3
g4
sg5
S'noteheadBlack'
p728
sg7
(lp729
I1649
aI2141
aI1673
aI2163
asg9
I0
sa(dp730
g2
I0
sg3
g4
sg5
S'noteheadBlack'
p731
sg7
(lp732
I1152
aI2163
aI1176
aI2186
asg9
I0
sa(dp733
g2
I0
sg3
g4
sg5
S'noteheadBlack'
p734
sg7
(lp735
I1040
aI2095
aI1064
aI2118
asg9
I0
sa(dp736
g2
I0
sg3
g4
sg5
S'noteheadBlack'
p737
sg7
(lp738
I1040
aI2141
aI1064
aI2163
asg9
I0
sa(dp739
g2
I0
sg3
g4
sg5
S'noteheadBlack'
p740
sg7
(lp741
I1649
aI2095
aI1673
aI2118
asg9
I0
sa(dp742
g2
I0
sg3
g4
sg5
S'noteheadBlack'
p743
sg7
(lp744
I1040
aI2163
aI1064
aI2186
asg9
I0
sa(dp745
g2
I0
sg3
g4
sg5
S'noteheadBlack'
p746
sg7
(lp747
I1040
aI1937
aI1064
aI1960
asg9
I0
sa(dp748
g2
I0
sg3
g4
sg5
S'noteheadBlack'
p749
sg7
(lp750
I1313
aI2163
aI1336
aI2186
asg9
I0
sa(dp751
g2
I0
sg3
g4
sg5
S'noteheadHalf'
p752
sg7
(lp753
I1313
aI1948
aI1347
aI1972
asg9
I0
sa(dp754
g2
I0
sg3
g4
sg5
S'noteheadBlack'
p755
sg7
(lp756
I1313
aI2141
aI1336
aI2163
asg9
I0
sa(dp757
g2
I0
sg3
g4
sg5
S'noteheadBlack'
p758
sg7
(lp759
I1152
aI2095
aI1176
aI2118
asg9
I0
sa(dp760
g2
I0
sg3
g4
sg5
S'noteheadBlack'
p761
sg7
(lp762
I1152
aI2141
aI1176
aI2163
asg9
I0
sa(dp763
g2
I0
sg3
g4
sg5
S'noteheadBlack'
p764
sg7
(lp765
I2268
aI2893
aI2291
aI2916
asg9
I0
sa(dp766
g2
I0
sg3
g4
sg5
S'augmentationDot'
p767
sg7
(lp768
I2311
aI2731
aI2321
aI2740
asg9
I0
sa(dp769
g2
I0
sg3
g4
sg5
S'noteheadBlack'
p770
sg7
(lp771
I2268
aI2939
aI2291
aI2962
asg9
I0
sa(dp772
g2
I0
sg3
g4
sg5
S'noteheadBlack'
p773
sg7
(lp774
I2268
aI2962
aI2291
aI2984
asg9
I0
sa(dp775
g2
I0
sg3
g4
sg5
S'noteheadHalf'
p776
sg7
(lp777
I2268
aI2723
aI2302
aI2747
asg9
I0
sa(dp778
g2
I0
sg3
g4
sg5
S'noteheadBlack'
p779
sg7
(lp780
I2091
aI2893
aI2114
aI2916
asg9
I0
sa(dp781
g2
I0
sg3
g4
sg5
S'noteheadBlack'
p782
sg7
(lp783
I2091
aI2927
aI2114
aI2950
asg9
I0
sa(dp784
g2
I0
sg3
g4
sg5
S'noteheadBlack'
p785
sg7
(lp786
I2379
aI2962
aI2403
aI2984
asg9
I0
sa(dp787
g2
I0
sg3
g4
sg5
S'accidentalSharp'
p788
sg7
(lp789
I2239
aI2920
aI2259
aI2979
asg9
I0
sa(dp790
g2
I0
sg3
g4
sg5
S'noteheadBlack'
p791
sg7
(lp792
I2379
aI2939
aI2403
aI2962
asg9
I0
sa(dp793
g2
I0
sg3
g4
sg5
S'noteheadBlack'
p794
sg7
(lp795
I2379
aI2893
aI2403
aI2916
asg9
I0
sa(dp796
g2
I0
sg3
g4
sg5
S'noteheadBlack'
p797
sg7
(lp798
I1755
aI2893
aI1778
aI2916
asg9
I0
sa(dp799
g2
I0
sg3
g4
sg5
S'noteheadBlack'
p800
sg7
(lp801
I1755
aI2927
aI1778
aI2950
asg9
I0
sa(dp802
g2
I0
sg3
g4
sg5
S'noteheadBlack'
p803
sg7
(lp804
I1755
aI2950
aI1778
aI2973
asg9
I0
sa(dp805
g2
I0
sg3
g4
sg5
S'noteheadBlack'
p806
sg7
(lp807
I1643
aI2893
aI1667
aI2916
asg9
I0
sa(dp808
g2
I0
sg3
g4
sg5
S'noteheadBlack'
p809
sg7
(lp810
I1643
aI2939
aI1667
aI2962
asg9
I0
sa(dp811
g2
I0
sg3
g4
sg5
S'noteheadBlack'
p812
sg7
(lp813
I1643
aI2962
aI1667
aI2984
asg9
I0
sa(dp814
g2
I0
sg3
g4
sg5
S'accidentalSharp'
p815
sg7
(lp816
I1502
aI2920
aI1523
aI2979
asg9
I0
sa(dp817
g2
I0
sg3
g4
sg5
S'noteheadBlack'
p818
sg7
(lp819
I1979
aI2927
aI2002
aI2950
asg9
I0
sa(dp820
g2
I0
sg3
g4
sg5
S'noteheadBlack'
p821
sg7
(lp822
I1979
aI2893
aI2002
aI2916
asg9
I0
sa(dp823
g2
I0
sg3
g4
sg5
S'noteheadBlack'
p824
sg7
(lp825
I2091
aI2950
aI2114
aI2973
asg9
I0
sa(dp826
g2
I0
sg3
g4
sg5
S'noteheadBlack'
p827
sg7
(lp828
I1979
aI2950
aI2002
aI2973
asg9
I0
sa(dp829
g2
I0
sg3
g4
sg5
S'noteheadBlack'
p830
sg7
(lp831
I1979
aI2701
aI2002
aI2724
asg9
I0
sa(dp832
g2
I0
sg3
g4
sg5
S'noteheadBlack'
p833
sg7
(lp834
I1867
aI2893
aI1890
aI2916
asg9
I0
sa(dp835
g2
I0
sg3
g4
sg5
S'noteheadBlack'
p836
sg7
(lp837
I1867
aI2927
aI1890
aI2950
asg9
I0
sa(dp838
g2
I0
sg3
g4
sg5
S'noteheadBlack'
p839
sg7
(lp840
I1867
aI2950
aI1890
aI2973
asg9
I0
sa(dp841
g2
I0
sg3
g4
sg5
S'noteheadBlack'
p842
sg7
(lp843
I3080
aI2893
aI3104
aI2916
asg9
I0
sa(dp844
g2
I0
sg3
g4
sg5
S'noteheadBlack'
p845
sg7
(lp846
I3080
aI2927
aI3104
aI2950
asg9
I0
sa(dp847
g2
I0
sg3
g4
sg5
S'noteheadBlack'
p848
sg7
(lp849
I3080
aI2950
aI3104
aI2973
asg9
I0
sa(dp850
g2
I0
sg3
g4
sg5
S'noteheadBlack'
p851
sg7
(lp852
I2715
aI2893
aI2738
aI2916
asg9
I0
sa(dp853
g2
I0
sg3
g4
sg5
S'noteheadBlack'
p854
sg7
(lp855
I2715
aI2927
aI2738
aI2950
asg9
I0
sa(dp856
g2
I0
sg3
g4
sg5
S'noteheadBlack'
p857
sg7
(lp858
I2715
aI2950
aI2738
aI2973
asg9
I0
sa(dp859
g2
I0
sg3
g4
sg5
S'noteheadBlack'
p860
sg7
(lp861
I2603
aI2893
aI2626
aI2916
asg9
I0
sa(dp862
g2
I0
sg3
g4
sg5
S'noteheadBlack'
p863
sg7
(lp864
I2603
aI2939
aI2626
aI2962
asg9
I0
sa(dp865
g2
I0
sg3
g4
sg5
S'noteheadBlack'
p866
sg7
(lp867
I2603
aI2962
aI2626
aI2984
asg9
I0
sa(dp868
g2
I0
sg3
g4
sg5
S'noteheadBlack'
p869
sg7
(lp870
I2491
aI2893
aI2515
aI2916
asg9
I0
sa(dp871
g2
I0
sg3
g4
sg5
S'noteheadBlack'
p872
sg7
(lp873
I2491
aI2939
aI2515
aI2962
asg9
I0
sa(dp874
g2
I0
sg3
g4
sg5
S'noteheadBlack'
p875
sg7
(lp876
I2491
aI2962
aI2515
aI2984
asg9
I0
sa(dp877
g2
I0
sg3
g4
sg5
S'noteheadBlack'
p878
sg7
(lp879
I2968
aI2893
aI2992
aI2916
asg9
I0
sa(dp880
g2
I0
sg3
g4
sg5
S'noteheadBlack'
p881
sg7
(lp882
I2968
aI2927
aI2992
aI2950
asg9
I0
sa(dp883
g2
I0
sg3
g4
sg5
S'noteheadBlack'
p884
sg7
(lp885
I2968
aI2950
aI2992
aI2973
asg9
I0
sa(dp886
g2
I0
sg3
g4
sg5
S'noteheadBlack'
p887
sg7
(lp888
I2968
aI2701
aI2992
aI2724
asg9
I0
sa(dp889
g2
I0
sg3
g4
sg5
S'graceNoteAppoggiaturaStemUp'
p890
sg7
(lp891
I2936
aI2640
aI2949
aI2659
asg9
I0
sa(dp892
g2
I0
sg3
g4
sg5
S'noteheadBlackSmall'
p893
sg7
(lp894
I2920
aI2693
aI2936
aI2709
asg9
I0
sa(dp895
g2
I0
sg3
g4
sg5
S'noteheadBlack'
p896
sg7
(lp897
I2827
aI2893
aI2850
aI2916
asg9
I0
sa(dp898
g2
I0
sg3
g4
sg5
S'noteheadBlack'
p899
sg7
(lp900
I2827
aI2927
aI2850
aI2950
asg9
I0
sa(dp901
g2
I0
sg3
g4
sg5
S'noteheadBlack'
p902
sg7
(lp903
I2827
aI2950
aI2850
aI2973
asg9
I0
sa(dp904
g2
I0
sg3
g4
sg5
S'noteheadBlack'
p905
sg7
(lp906
I677
aI2893
aI701
aI2916
asg9
I0
sa(dp907
g2
I0
sg3
g4
sg5
S'noteheadBlack'
p908
sg7
(lp909
I677
aI2927
aI701
aI2950
asg9
I0
sa(dp910
g2
I0
sg3
g4
sg5
S'noteheadBlack'
p911
sg7
(lp912
I677
aI2950
aI701
aI2973
asg9
I0
sa(dp913
g2
I0
sg3
g4
sg5
S'noteheadBlack'
p914
sg7
(lp915
I677
aI2689
aI701
aI2712
asg9
I0
sa(dp916
g2
I0
sg3
g4
sg5
S'noteheadBlack'
p917
sg7
(lp918
I566
aI2893
aI589
aI2916
asg9
I0
sa(dp919
g2
I0
sg3
g4
sg5
S'noteheadBlack'
p920
sg7
(lp921
I566
aI2927
aI589
aI2950
asg9
I0
sa(dp922
g2
I0
sg3
g4
sg5
S'noteheadBlack'
p923
sg7
(lp924
I566
aI2950
aI589
aI2973
asg9
I0
sa(dp925
g2
I0
sg3
g4
sg5
S'noteheadBlack'
p926
sg7
(lp927
I566
aI2701
aI589
aI2724
asg9
I0
sa(dp928
g2
I0
sg3
g4
sg5
S'noteheadBlack'
p929
sg7
(lp930
I792
aI2893
aI815
aI2916
asg9
I0
sa(dp931
g2
I0
sg3
g4
sg5
S'noteheadBlack'
p932
sg7
(lp933
I904
aI2678
aI927
aI2701
asg9
I0
sa(dp934
g2
I0
sg3
g4
sg5
S'noteheadBlack'
p935
sg7
(lp936
I1531
aI2893
aI1555
aI2916
asg9
I0
sa(dp937
g2
I0
sg3
g4
sg5
S'noteheadBlack'
p938
sg7
(lp939
I792
aI2927
aI815
aI2950
asg9
I0
sa(dp940
g2
I0
sg3
g4
sg5
S'noteheadBlack'
p941
sg7
(lp942
I792
aI2950
aI815
aI2973
asg9
I0
sa(dp943
g2
I0
sg3
g4
sg5
S'noteheadBlack'
p944
sg7
(lp945
I792
aI2667
aI815
aI2689
asg9
I0
sa(dp946
g2
I0
sg3
g4
sg5
S'keySharp'
p947
sg7
(lp948
I258
aI2898
aI279
aI2956
asg9
I0
sa(dp949
g2
I0
sg3
g4
sg5
S'fClef'
p950
sg7
(lp951
I178
aI2908
aI237
aI2968
asg9
I0
sa(dp952
g2
I0
sg3
g4
sg5
S'keySharp'
p953
sg7
(lp954
I258
aI2625
aI279
aI2684
asg9
I0
sa(dp955
g2
I0
sg3
g4
sg5
S'gClef'
p956
sg7
(lp957
I178
aI2635
aI237
aI2772
asg9
I0
sa(dp958
g2
I0
sg3
g4
sg5
S'brace'
p959
sg7
(lp960
I127
aI2654
aI151
aI2997
asg9
I0
sa(dp961
g2
I0
sg3
g4
sg5
S'noteheadBlack'
p962
sg7
(lp963
I454
aI2882
aI477
aI2904
asg9
I0
sa(dp964
g2
I0
sg3
g4
sg5
S'noteheadBlack'
p965
sg7
(lp966
I454
aI2927
aI477
aI2950
asg9
I0
sa(dp967
g2
I0
sg3
g4
sg5
S'noteheadBlack'
p968
sg7
(lp969
I454
aI2950
aI477
aI2973
asg9
I0
sa(dp970
g2
I0
sg3
g4
sg5
S'accidentalSharp'
p971
sg7
(lp972
I313
aI2694
aI334
aI2753
asg9
I0
sa(dp973
g2
I0
sg3
g4
sg5
S'noteheadBlack'
p974
sg7
(lp975
I342
aI2882
aI365
aI2904
asg9
I0
sa(dp976
g2
I0
sg3
g4
sg5
S'noteheadBlack'
p977
sg7
(lp978
I342
aI2927
aI365
aI2950
asg9
I0
sa(dp979
g2
I0
sg3
g4
sg5
S'noteheadBlack'
p980
sg7
(lp981
I342
aI2950
aI365
aI2973
asg9
I0
sa(dp982
g2
I0
sg3
g4
sg5
S'noteheadBlack'
p983
sg7
(lp984
I342
aI2712
aI365
aI2735
asg9
I0
sa(dp985
g2
I0
sg3
g4
sg5
S'noteheadBlack'
p986
sg7
(lp987
I1292
aI2893
aI1316
aI2916
asg9
I0
sa(dp988
g2
I0
sg3
g4
sg5
S'augmentationDot'
p989
sg7
(lp990
I1336
aI2731
aI1346
aI2740
asg9
I0
sa(dp991
g2
I0
sg3
g4
sg5
S'noteheadBlack'
p992
sg7
(lp993
I1292
aI2927
aI1316
aI2950
asg9
I0
sa(dp994
g2
I0
sg3
g4
sg5
S'noteheadBlack'
p995
sg7
(lp996
I1292
aI2962
aI1316
aI2984
asg9
I0
sa(dp997
g2
I0
sg3
g4
sg5
S'noteheadHalf'
p998
sg7
(lp999
I1292
aI2723
aI1327
aI2747
asg9
I0
sa(dp1000
g2
I0
sg3
g4
sg5
S'noteheadBlack'
p1001
sg7
(lp1002
I904
aI2950
aI927
aI2973
asg9
I0
sa(dp1003
g2
I0
sg3
g4
sg5
S'noteheadBlack'
p1004
sg7
(lp1005
I1531
aI2939
aI1555
aI2962
asg9
I0
sa(dp1006
g2
I0
sg3
g4
sg5
S'noteheadBlack'
p1007
sg7
(lp1008
I1531
aI2962
aI1555
aI2984
asg9
I0
sa(dp1009
g2
I0
sg3
g4
sg5
S'noteheadBlack'
p1010
sg7
(lp1011
I1404
aI2893
aI1427
aI2916
asg9
I0
sa(dp1012
g2
I0
sg3
g4
sg5
S'noteheadBlack'
p1013
sg7
(lp1014
I1404
aI2927
aI1427
aI2950
asg9
I0
sa(dp1015
g2
I0
sg3
g4
sg5
S'noteheadBlack'
p1016
sg7
(lp1017
I1404
aI2962
aI1427
aI2984
asg9
I0
sa(dp1018
g2
I0
sg3
g4
sg5
S'noteheadBlack'
p1019
sg7
(lp1020
I1013
aI2893
aI1036
aI2916
asg9
I0
sa(dp1021
g2
I0
sg3
g4
sg5
S'noteheadBlack'
p1022
sg7
(lp1023
I1013
aI2927
aI1036
aI2950
asg9
I0
sa(dp1024
g2
I0
sg3
g4
sg5
S'noteheadBlack'
p1025
sg7
(lp1026
I1013
aI2950
aI1036
aI2973
asg9
I0
sa(dp1027
g2
I0
sg3
g4
sg5
S'noteheadBlack'
p1028
sg7
(lp1029
I1013
aI2735
aI1036
aI2758
asg9
I0
sa(dp1030
g2
I0
sg3
g4
sg5
S'noteheadBlack'
p1031
sg7
(lp1032
I904
aI2893
aI927
aI2916
asg9
I0
sa(dp1033
g2
I0
sg3
g4
sg5
S'noteheadBlack'
p1034
sg7
(lp1035
I904
aI2927
aI927
aI2950
asg9
I0
sa(dp1036
g2
I0
sg3
g4
sg5
S'noteheadBlack'
p1037
sg7
(lp1038
I1128
aI2927
aI1151
aI2950
asg9
I0
sa(dp1039
g2
I0
sg3
g4
sg5
S'noteheadBlack'
p1040
sg7
(lp1041
I1128
aI2893
aI1151
aI2916
asg9
I0
sa(dp1042
g2
I0
sg3
g4
sg5
S'noteheadBlack'
p1043
sg7
(lp1044
I1128
aI2950
aI1151
aI2973
asg9
I0
sa(dp1045
g2
I0
sg3
g4
sg5
S'noteheadBlack'
p1046
sg7
(lp1047
I1128
aI2701
aI1151
aI2724
asg9
I0
sa(dp1048
g2
I0
sg3
g4
sg5
S'augmentationDot'
p1049
sg7
(lp1050
I2324
aI3460
aI2333
aI3470
asg9
I0
sa(dp1051
g2
I0
sg3
g4
sg5
S'noteheadBlack'
p1052
sg7
(lp1053
I2280
aI3600
aI2303
aI3623
asg9
I0
sa(dp1054
g2
I0
sg3
g4
sg5
S'noteheadBlack'
p1055
sg7
(lp1056
I2280
aI3646
aI2303
aI3668
asg9
I0
sa(dp1057
g2
I0
sg3
g4
sg5
S'noteheadBlack'
p1058
sg7
(lp1059
I2280
aI3668
aI2303
aI3691
asg9
I0
sa(dp1060
g2
I0
sg3
g4
sg5
S'noteheadHalf'
p1061
sg7
(lp1062
I2280
aI3464
aI2314
aI3488
asg9
I0
sa(dp1063
g2
I0
sg3
g4
sg5
S'noteheadBlack'
p1064
sg7
(lp1065
I2392
aI3600
aI2415
aI3623
asg9
I0
sa(dp1066
g2
I0
sg3
g4
sg5
S'noteheadBlack'
p1067
sg7
(lp1068
I2392
aI3646
aI2415
aI3668
asg9
I0
sa(dp1069
g2
I0
sg3
g4
sg5
S'noteheadBlack'
p1070
sg7
(lp1071
I2392
aI3668
aI2415
aI3691
asg9
I0
sa(dp1072
g2
I0
sg3
g4
sg5
S'noteheadBlack'
p1073
sg7
(lp1074
I1895
aI3600
aI1919
aI3623
asg9
I0
sa(dp1075
g2
I0
sg3
g4
sg5
S'noteheadBlack'
p1076
sg7
(lp1077
I1895
aI3634
aI1919
aI3657
asg9
I0
sa(dp1078
g2
I0
sg3
g4
sg5
S'noteheadBlack'
p1079
sg7
(lp1080
I1895
aI3657
aI1919
aI3680
asg9
I0
sa(dp1081
g2
I0
sg3
g4
sg5
S'noteheadBlack'
p1082
sg7
(lp1083
I1783
aI3600
aI1807
aI3623
asg9
I0
sa(dp1084
g2
I0
sg3
g4
sg5
S'noteheadBlack'
p1085
sg7
(lp1086
I1783
aI3634
aI1807
aI3657
asg9
I0
sa(dp1087
g2
I0
sg3
g4
sg5
S'noteheadBlack'
p1088
sg7
(lp1089
I1783
aI3657
aI1807
aI3680
asg9
I0
sa(dp1090
g2
I0
sg3
g4
sg5
S'noteheadBlack'
p1091
sg7
(lp1092
I2119
aI3600
aI2143
aI3623
asg9
I0
sa(dp1093
g2
I0
sg3
g4
sg5
S'noteheadBlack'
p1094
sg7
(lp1095
I2119
aI3634
aI2143
aI3657
asg9
I0
sa(dp1096
g2
I0
sg3
g4
sg5
S'noteheadBlack'
p1097
sg7
(lp1098
I2119
aI3657
aI2143
aI3680
asg9
I0
sa(dp1099
g2
I0
sg3
g4
sg5
S'noteheadBlack'
p1100
sg7
(lp1101
I2007
aI3600
aI2031
aI3623
asg9
I0
sa(dp1102
g2
I0
sg3
g4
sg5
S'noteheadBlack'
p1103
sg7
(lp1104
I2007
aI3634
aI2031
aI3657
asg9
I0
sa(dp1105
g2
I0
sg3
g4
sg5
S'noteheadBlack'
p1106
sg7
(lp1107
I2007
aI3657
aI2031
aI3680
asg9
I0
sa(dp1108
g2
I0
sg3
g4
sg5
S'noteheadBlack'
p1109
sg7
(lp1110
I2007
aI3453
aI2031
aI3476
asg9
I0
sa(dp1111
g2
I0
sg3
g4
sg5
S'noteheadBlack'
p1112
sg7
(lp1113
I3080
aI3600
aI3103
aI3623
asg9
I0
sa(dp1114
g2
I0
sg3
g4
sg5
S'noteheadBlack'
p1115
sg7
(lp1116
I3080
aI3646
aI3103
aI3668
asg9
I0
sa(dp1117
g2
I0
sg3
g4
sg5
S'noteheadBlack'
p1118
sg7
(lp1119
I3080
aI3668
aI3103
aI3691
asg9
I0
sa(dp1120
g2
I0
sg3
g4
sg5
S'noteheadBlack'
p1121
sg7
(lp1122
I2968
aI3600
aI2991
aI3623
asg9
I0
sa(dp1123
g2
I0
sg3
g4
sg5
S'tuplet3'
p1124
sg7
(lp1125
I1108
aI3551
aI1128
aI3579
asg9
I0
sa(dp1126
g2
I0
sg3
g4
sg5
S'noteheadBlack'
p1127
sg7
(lp1128
I2968
aI3646
aI2991
aI3668
asg9
I0
sa(dp1129
g2
I0
sg3
g4
sg5
S'noteheadBlack'
p1130
sg7
(lp1131
I2744
aI3668
aI2767
aI3691
asg9
I0
sa(dp1132
g2
I0
sg3
g4
sg5
S'noteheadBlack'
p1133
sg7
(lp1134
I2616
aI3600
aI2639
aI3623
asg9
I0
sa(dp1135
g2
I0
sg3
g4
sg5
S'noteheadBlack'
p1136
sg7
(lp1137
I2616
aI3646
aI2639
aI3668
asg9
I0
sa(dp1138
g2
I0
sg3
g4
sg5
S'noteheadBlack'
p1139
sg7
(lp1140
I2616
aI3668
aI2639
aI3691
asg9
I0
sa(dp1141
g2
I0
sg3
g4
sg5
S'noteheadBlack'
p1142
sg7
(lp1143
I2744
aI3646
aI2767
aI3668
asg9
I0
sa(dp1144
g2
I0
sg3
g4
sg5
S'noteheadBlack'
p1145
sg7
(lp1146
I2504
aI3600
aI2527
aI3623
asg9
I0
sa(dp1147
g2
I0
sg3
g4
sg5
S'noteheadBlack'
p1148
sg7
(lp1149
I2504
aI3646
aI2527
aI3668
asg9
I0
sa(dp1150
g2
I0
sg3
g4
sg5
S'noteheadBlack'
p1151
sg7
(lp1152
I2504
aI3668
aI2527
aI3691
asg9
I0
sa(dp1153
g2
I0
sg3
g4
sg5
S'noteheadBlack'
p1154
sg7
(lp1155
I2856
aI3668
aI2879
aI3691
asg9
I0
sa(dp1156
g2
I0
sg3
g4
sg5
S'noteheadBlack'
p1157
sg7
(lp1158
I2968
aI3668
aI2991
aI3691
asg9
I0
sa(dp1159
g2
I0
sg3
g4
sg5
S'noteheadBlack'
p1160
sg7
(lp1161
I2968
aI3453
aI2991
aI3476
asg9
I0
sa(dp1162
g2
I0
sg3
g4
sg5
S'noteheadBlack'
p1163
sg7
(lp1164
I2856
aI3600
aI2879
aI3623
asg9
I0
sa(dp1165
g2
I0
sg3
g4
sg5
S'noteheadBlack'
p1166
sg7
(lp1167
I2856
aI3646
aI2879
aI3668
asg9
I0
sa(dp1168
g2
I0
sg3
g4
sg5
S'accidentalFlat'
p1169
sg7
(lp1170
I2714
aI3578
aI2736
aI3629
asg9
I0
sa(dp1171
g2
I0
sg3
g4
sg5
S'accidentalNatural'
p1172
sg7
(lp1173
I2718
aI3648
aI2736
aI3710
asg9
I0
sa(dp1174
g2
I0
sg3
g4
sg5
S'noteheadBlack'
p1175
sg7
(lp1176
I2744
aI3600
aI2767
aI3623
asg9
I0
sa(dp1177
g2
I0
sg3
g4
sg5
S'noteheadBlack'
p1178
sg7
(lp1179
I672
aI3545
aI696
aI3567
asg9
I0
sa(dp1180
g2
I0
sg3
g4
sg5
S'restQuarter'
p1181
sg7
(lp1182
I559
aI3663
aI580
aI3722
asg9
I0
sa(dp1183
g2
I0
sg3
g4
sg5
S'noteheadBlack'
p1184
sg7
(lp1185
I560
aI3533
aI584
aI3556
asg9
I0
sa(dp1186
g2
I0
sg3
g4
sg5
S'noteheadBlack'
p1187
sg7
(lp1188
I918
aI3499
aI941
aI3522
asg9
I0
sa(dp1189
g2
I0
sg3
g4
sg5
S'noteheadBlack'
p1190
sg7
(lp1191
I454
aI3499
aI477
aI3522
asg9
I0
sa(dp1192
g2
I0
sg3
g4
sg5
S'accidentalSharp'
p1193
sg7
(lp1194
I771
aI3503
aI792
aI3562
asg9
I0
sa(dp1195
g2
I0
sg3
g4
sg5
S'restHalf'
p1196
sg7
(lp1197
I800
aI3690
aI831
aI3703
asg9
I0
sa(dp1198
g2
I0
sg3
g4
sg5
S'noteheadBlack'
p1199
sg7
(lp1200
I800
aI3522
aI823
aI3545
asg9
I0
sa(dp1201
g2
I0
sg3
g4
sg5
S'keySharp'
p1202
sg7
(lp1203
I258
aI3650
aI279
aI3709
asg9
I0
sa(dp1204
g2
I0
sg3
g4
sg5
S'fClef'
p1205
sg7
(lp1206
I178
aI3661
aI237
aI3720
asg9
I0
sa(dp1207
g2
I0
sg3
g4
sg5
S'keySharp'
p1208
sg7
(lp1209
I258
aI3401
aI279
aI3459
asg9
I0
sa(dp1210
g2
I0
sg3
g4
sg5
S'gClef'
p1211
sg7
(lp1212
I178
aI3410
aI237
aI3547
asg9
I0
sa(dp1213
g2
I0
sg3
g4
sg5
S'brace'
p1214
sg7
(lp1215
I127
aI3429
aI151
aI3749
asg9
I0
sa(dp1216
g2
I0
sg3
g4
sg5
S'accidentalSharp'
p1217
sg7
(lp1218
I313
aI3673
aI334
aI3731
asg9
I0
sa(dp1219
g2
I0
sg3
g4
sg5
S'noteheadBlack'
p1220
sg7
(lp1221
I1671
aI3600
aI1695
aI3623
asg9
I0
sa(dp1222
g2
I0
sg3
g4
sg5
S'noteheadBlack'
p1223
sg7
(lp1224
I342
aI3646
aI365
aI3668
asg9
I0
sa(dp1225
g2
I0
sg3
g4
sg5
S'noteheadBlack'
p1226
sg7
(lp1227
I342
aI3691
aI365
aI3714
asg9
I0
sa(dp1228
g2
I0
sg3
g4
sg5
S'noteheadBlack'
p1229
sg7
(lp1230
I342
aI3714
aI365
aI3737
asg9
I0
sa(dp1231
g2
I0
sg3
g4
sg5
S'noteheadBlack'
p1232
sg7
(lp1233
I342
aI3488
aI365
aI3510
asg9
I0
sa(dp1234
g2
I0
sg3
g4
sg5
S'noteheadBlack'
p1235
sg7
(lp1236
I1559
aI3634
aI1582
aI3657
asg9
I0
sa(dp1237
g2
I0
sg3
g4
sg5
S'noteheadBlack'
p1238
sg7
(lp1239
I1671
aI3634
aI1695
aI3657
asg9
I0
sa(dp1240
g2
I0
sg3
g4
sg5
S'noteheadBlack'
p1241
sg7
(lp1242
I1671
aI3657
aI1695
aI3680
asg9
I0
sa(dp1243
g2
I0
sg3
g4
sg5
S'noteheadBlack'
p1244
sg7
(lp1245
I1559
aI3600
aI1582
aI3623
asg9
I0
sa(dp1246
g2
I0
sg3
g4
sg5
S'noteheadBlack'
p1247
sg7
(lp1248
I1559
aI3657
aI1582
aI3680
asg9
I0
sa(dp1249
g2
I0
sg3
g4
sg5
S'noteheadBlack'
p1250
sg7
(lp1251
I1447
aI3600
aI1470
aI3623
asg9
I0
sa(dp1252
g2
I0
sg3
g4
sg5
S'noteheadBlack'
p1253
sg7
(lp1254
I1447
aI3634
aI1470
aI3657
asg9
I0
sa(dp1255
g2
I0
sg3
g4
sg5
S'noteheadBlack'
p1256
sg7
(lp1257
I1447
aI3657
aI1470
aI3680
asg9
I0
sa(dp1258
g2
I0
sg3
g4
sg5
S'noteheadBlack'
p1259
sg7
(lp1260
I1120
aI3453
aI1143
aI3476
asg9
I0
sa(dp1261
g2
I0
sg3
g4
sg5
S'noteheadBlack'
p1262
sg7
(lp1263
I1202
aI3465
aI1225
aI3488
asg9
I0
sa(dp1264
g2
I0
sg3
g4
sg5
S'noteheadBlack'
p1265
sg7
(lp1266
I1037
aI3442
aI1060
aI3465
asg9
I0
sa(dp1267
g2
I0
sg3
g4
sg5
S'noteheadHalf'
p1268
sg7
(lp1269
I1335
aI3464
aI1369
aI3488
asg9
I0
sa(dp1270
g2
I0
sg3
g4
sg5
S'noteheadBlack'
p1271
sg7
(lp1272
I1335
aI3657
aI1358
aI3680
asg9
I0
sa(dp1273
g2
I0
sg3
g4
sg5
S'noteheadBlack'
p1274
sg7
(lp1275
I1335
aI3634
aI1358
aI3657
asg9
I0
sa(dp1276
g2
I0
sg3
g4
sg5
S'noteheadBlack'
p1277
sg7
(lp1278
I1335
aI3600
aI1358
aI3623
asg9
I0
sa(dp1279
g2
I0
sg3
g4
sg5
S'augmentationDot'
p1280
sg7
(lp1281
I1379
aI3460
aI1389
aI3470
asg9
I0
sa(dp1282
g2
I0
sg3
g4
sg5
S'noteheadBlack'
p1283
sg7
(lp1284
I2539
aI4398
aI2563
aI4421
asg9
I0
sa(dp1285
g2
I0
sg3
g4
sg5
S'noteheadBlack'
p1286
sg7
(lp1287
I2539
aI4126
aI2563
aI4149
asg9
I0
sa(dp1288
g2
I0
sg3
g4
sg5
S'accidentalSharp'
p1289
sg7
(lp1290
I2398
aI4176
aI2419
aI4235
asg9
I0
sa(dp1291
g2
I0
sg3
g4
sg5
S'noteheadBlack'
p1292
sg7
(lp1293
I2539
aI4341
aI2563
aI4364
asg9
I0
sa(dp1294
g2
I0
sg3
g4
sg5
S'noteheadBlack'
p1295
sg7
(lp1296
I2539
aI4375
aI2563
aI4398
asg9
I0
sa(dp1297
g2
I0
sg3
g4
sg5
S'noteheadBlack'
p1298
sg7
(lp1299
I2539
aI4318
aI2563
aI4341
asg9
I0
sa(dp1300
g2
I0
sg3
g4
sg5
S'noteheadBlack'
p1301
sg7
(lp1302
I2427
aI4318
aI2451
aI4341
asg9
I0
sa(dp1303
g2
I0
sg3
g4
sg5
S'noteheadBlack'
p1304
sg7
(lp1305
I2427
aI4341
aI2451
aI4364
asg9
I0
sa(dp1306
g2
I0
sg3
g4
sg5
S'noteheadBlack'
p1307
sg7
(lp1308
I2427
aI4375
aI2451
aI4398
asg9
I0
sa(dp1309
g2
I0
sg3
g4
sg5
S'noteheadBlack'
p1310
sg7
(lp1311
I2427
aI4398
aI2451
aI4421
asg9
I0
sa(dp1312
g2
I0
sg3
g4
sg5
S'noteheadBlack'
p1313
sg7
(lp1314
I2427
aI4194
aI2451
aI4217
asg9
I0
sa(dp1315
g2
I0
sg3
g4
sg5
S'noteheadBlack'
p1316
sg7
(lp1317
I2021
aI4172
aI2045
aI4194
asg9
I0
sa(dp1318
g2
I0
sg3
g4
sg5
S'augmentationDot'
p1319
sg7
(lp1320
I2054
aI4167
aI2064
aI4176
asg9
I0
sa(dp1321
g2
I0
sg3
g4
sg5
S'noteheadBlack'
p1322
sg7
(lp1323
I2021
aI4398
aI2045
aI4421
asg9
I0
sa(dp1324
g2
I0
sg3
g4
sg5
S'noteheadBlack'
p1325
sg7
(lp1326
I2021
aI4432
aI2045
aI4455
asg9
I0
sa(dp1327
g2
I0
sg3
g4
sg5
S'noteheadBlack'
p1328
sg7
(lp1329
I2021
aI4455
aI2045
aI4478
asg9
I0
sa(dp1330
g2
I0
sg3
g4
sg5
S'noteheadBlack'
p1331
sg7
(lp1332
I1892
aI4398
aI1916
aI4421
asg9
I0
sa(dp1333
g2
I0
sg3
g4
sg5
S'noteheadBlack'
p1334
sg7
(lp1335
I1892
aI4432
aI1916
aI4455
asg9
I0
sa(dp1336
g2
I0
sg3
g4
sg5
S'noteheadBlack'
p1337
sg7
(lp1338
I1892
aI4455
aI1916
aI4478
asg9
I0
sa(dp1339
g2
I0
sg3
g4
sg5
S'accidentalSharp'
p1340
sg7
(lp1341
I1754
aI4380
aI1775
aI4438
asg9
I0
sa(dp1342
g2
I0
sg3
g4
sg5
S'accidentalSharp'
p1343
sg7
(lp1344
I1736
aI4437
aI1757
aI4495
asg9
I0
sa(dp1345
g2
I0
sg3
g4
sg5
S'noteheadBlack'
p1346
sg7
(lp1347
I2303
aI4467
aI2326
aI4489
asg9
I0
sa(dp1348
g2
I0
sg3
g4
sg5
S'noteheadBlack'
p1349
sg7
(lp1350
I2303
aI4546
aI2326
aI4569
asg9
I0
sa(dp1351
g2
I0
sg3
g4
sg5
S'noteheadBlack'
p1352
sg7
(lp1353
I2303
aI4183
aI2326
aI4206
asg9
I0
sa(dp1354
g2
I0
sg3
g4
sg5
S'noteheadBlack'
p1355
sg7
(lp1356
I2187
aI4183
aI2210
aI4206
asg9
I0
sa(dp1357
g2
I0
sg3
g4
sg5
S'noteheadBlack'
p1358
sg7
(lp1359
I2130
aI4398
aI2154
aI4421
asg9
I0
sa(dp1360
g2
I0
sg3
g4
sg5
S'noteheadBlack'
p1361
sg7
(lp1362
I2130
aI4432
aI2154
aI4455
asg9
I0
sa(dp1363
g2
I0
sg3
g4
sg5
S'noteheadBlack'
p1364
sg7
(lp1365
I2130
aI4455
aI2154
aI4478
asg9
I0
sa(dp1366
g2
I0
sg3
g4
sg5
S'accidentalNatural'
p1367
sg7
(lp1368
I1996
aI4377
aI2013
aI4440
asg9
I0
sa(dp1369
g2
I0
sg3
g4
sg5
S'accidentalNatural'
p1370
sg7
(lp1371
I1988
aI4434
aI2005
aI4497
asg9
I0
sa(dp1372
g2
I0
sg3
g4
sg5
S'noteheadBlack'
p1373
sg7
(lp1374
I3082
aI4352
aI3105
aI4375
asg9
I0
sa(dp1375
g2
I0
sg3
g4
sg5
S'noteheadBlack'
p1376
sg7
(lp1377
I3082
aI4387
aI3105
aI4409
asg9
I0
sa(dp1378
g2
I0
sg3
g4
sg5
S'noteheadBlack'
p1379
sg7
(lp1380
I3082
aI4409
aI3105
aI4432
asg9
I0
sa(dp1381
g2
I0
sg3
g4
sg5
S'noteheadBlack'
p1382
sg7
(lp1383
I3082
aI4217
aI3105
aI4240
asg9
I0
sa(dp1384
g2
I0
sg3
g4
sg5
S'noteheadBlack'
p1385
sg7
(lp1386
I2976
aI4352
aI2999
aI4375
asg9
I0
sa(dp1387
g2
I0
sg3
g4
sg5
S'noteheadBlack'
p1388
sg7
(lp1389
I2976
aI4387
aI2999
aI4409
asg9
I0
sa(dp1390
g2
I0
sg3
g4
sg5
S'noteheadBlack'
p1391
sg7
(lp1392
I2976
aI4409
aI2999
aI4432
asg9
I0
sa(dp1393
g2
I0
sg3
g4
sg5
S'noteheadBlack'
p1394
sg7
(lp1395
I2976
aI4160
aI2999
aI4183
asg9
I0
sa(dp1396
g2
I0
sg3
g4
sg5
S'noteheadBlack'
p1397
sg7
(lp1398
I2755
aI4341
aI2778
aI4364
asg9
I0
sa(dp1399
g2
I0
sg3
g4
sg5
S'noteheadBlack'
p1400
sg7
(lp1401
I2755
aI4364
aI2778
aI4387
asg9
I0
sa(dp1402
g2
I0
sg3
g4
sg5
S'noteheadBlack'
p1403
sg7
(lp1404
I2755
aI4387
aI2778
aI4409
asg9
I0
sa(dp1405
g2
I0
sg3
g4
sg5
S'noteheadBlack'
p1406
sg7
(lp1407
I2755
aI4183
aI2778
aI4206
asg9
I0
sa(dp1408
g2
I0
sg3
g4
sg5
S'noteheadBlack'
p1409
sg7
(lp1410
I2755
aI4318
aI2778
aI4341
asg9
I0
sa(dp1411
g2
I0
sg3
g4
sg5
S'noteheadBlack'
p1412
sg7
(lp1413
I2645
aI4318
aI2669
aI4341
asg9
I0
sa(dp1414
g2
I0
sg3
g4
sg5
S'noteheadBlack'
p1415
sg7
(lp1416
I2645
aI4341
aI2669
aI4364
asg9
I0
sa(dp1417
g2
I0
sg3
g4
sg5
S'noteheadBlack'
p1418
sg7
(lp1419
I2645
aI4375
aI2669
aI4398
asg9
I0
sa(dp1420
g2
I0
sg3
g4
sg5
S'noteheadBlack'
p1421
sg7
(lp1422
I2645
aI4398
aI2669
aI4421
asg9
I0
sa(dp1423
g2
I0
sg3
g4
sg5
S'noteheadBlack'
p1424
sg7
(lp1425
I2645
aI4194
aI2669
aI4217
asg9
I0
sa(dp1426
g2
I0
sg3
g4
sg5
S'noteheadBlack'
p1427
sg7
(lp1428
I2864
aI4409
aI2887
aI4432
asg9
I0
sa(dp1429
g2
I0
sg3
g4
sg5
S'noteheadBlack'
p1430
sg7
(lp1431
I2864
aI4352
aI2887
aI4375
asg9
I0
sa(dp1432
g2
I0
sg3
g4
sg5
S'noteheadBlack'
p1433
sg7
(lp1434
I2864
aI4387
aI2887
aI4409
asg9
I0
sa(dp1435
g2
I0
sg3
g4
sg5
S'noteheadBlack'
p1436
sg7
(lp1437
I2864
aI4183
aI2887
aI4206
asg9
I0
sa(dp1438
g2
I0
sg3
g4
sg5
S'accidentalSharp'
p1439
sg7
(lp1440
I787
aI4391
aI808
aI4450
asg9
I0
sa(dp1441
g2
I0
sg3
g4
sg5
S'noteheadBlack'
p1442
sg7
(lp1443
I816
aI4364
aI839
aI4387
asg9
I0
sa(dp1444
g2
I0
sg3
g4
sg5
S'noteheadBlack'
p1445
sg7
(lp1446
I816
aI4409
aI839
aI4432
asg9
I0
sa(dp1447
g2
I0
sg3
g4
sg5
S'noteheadBlack'
p1448
sg7
(lp1449
I816
aI4432
aI839
aI4455
asg9
I0
sa(dp1450
g2
I0
sg3
g4
sg5
S'noteheadBlack'
p1451
sg7
(lp1452
I692
aI4352
aI715
aI4375
asg9
I0
sa(dp1453
g2
I0
sg3
g4
sg5
S'noteheadBlack'
p1454
sg7
(lp1455
I692
aI4398
aI715
aI4421
asg9
I0
sa(dp1456
g2
I0
sg3
g4
sg5
S'noteheadBlack'
p1457
sg7
(lp1458
I692
aI4421
aI715
aI4444
asg9
I0
sa(dp1459
g2
I0
sg3
g4
sg5
S'noteheadBlack'
p1460
sg7
(lp1461
I583
aI4352
aI606
aI4375
asg9
I0
sa(dp1462
g2
I0
sg3
g4
sg5
S'noteheadBlack'
p1463
sg7
(lp1464
I583
aI4398
aI606
aI4421
asg9
I0
sa(dp1465
g2
I0
sg3
g4
sg5
S'noteheadBlack'
p1466
sg7
(lp1467
I583
aI4421
aI606
aI4444
asg9
I0
sa(dp1468
g2
I0
sg3
g4
sg5
S'noteheadBlack'
p1469
sg7
(lp1470
I1143
aI4364
aI1167
aI4387
asg9
I0
sa(dp1471
g2
I0
sg3
g4
sg5
S'noteheadBlack'
p1472
sg7
(lp1473
I1143
aI4409
aI1167
aI4432
asg9
I0
sa(dp1474
g2
I0
sg3
g4
sg5
S'noteheadBlack'
p1475
sg7
(lp1476
I1143
aI4432
aI1167
aI4455
asg9
I0
sa(dp1477
g2
I0
sg3
g4
sg5
S'noteheadBlack'
p1478
sg7
(lp1479
I1034
aI4364
aI1058
aI4387
asg9
I0
sa(dp1480
g2
I0
sg3
g4
sg5
S'noteheadBlack'
p1481
sg7
(lp1482
I1034
aI4409
aI1058
aI4432
asg9
I0
sa(dp1483
g2
I0
sg3
g4
sg5
S'noteheadBlack'
p1484
sg7
(lp1485
I1034
aI4432
aI1058
aI4455
asg9
I0
sa(dp1486
g2
I0
sg3
g4
sg5
S'noteheadBlack'
p1487
sg7
(lp1488
I1034
aI4206
aI1058
aI4229
asg9
I0
sa(dp1489
g2
I0
sg3
g4
sg5
S'noteheadBlack'
p1490
sg7
(lp1491
I925
aI4364
aI949
aI4387
asg9
I0
sa(dp1492
g2
I0
sg3
g4
sg5
S'noteheadBlack'
p1493
sg7
(lp1494
I925
aI4409
aI949
aI4432
asg9
I0
sa(dp1495
g2
I0
sg3
g4
sg5
S'noteheadBlack'
p1496
sg7
(lp1497
I925
aI4432
aI949
aI4455
asg9
I0
sa(dp1498
g2
I0
sg3
g4
sg5
S'keySharp'
p1499
sg7
(lp1500
I258
aI4153
aI279
aI4212
asg9
I0
sa(dp1501
g2
I0
sg3
g4
sg5
S'noteheadHalf'
p1502
sg7
(lp1503
I364
aI4217
aI399
aI4241
asg9
I0
sa(dp1504
g2
I0
sg3
g4
sg5
S'keySharp'
p1505
sg7
(lp1506
I258
aI4403
aI279
aI4461
asg9
I0
sa(dp1507
g2
I0
sg3
g4
sg5
S'fClef'
p1508
sg7
(lp1509
I178
aI4413
aI237
aI4473
asg9
I0
sa(dp1510
g2
I0
sg3
g4
sg5
S'noteheadBlack'
p1511
sg7
(lp1512
I364
aI4421
aI388
aI4444
asg9
I0
sa(dp1513
g2
I0
sg3
g4
sg5
S'gClef'
p1514
sg7
(lp1515
I178
aI4163
aI237
aI4300
asg9
I0
sa(dp1516
g2
I0
sg3
g4
sg5
S'brace'
p1517
sg7
(lp1518
I127
aI4182
aI151
aI4502
asg9
I0
sa(dp1519
g2
I0
sg3
g4
sg5
S'noteheadBlack'
p1520
sg7
(lp1521
I474
aI4352
aI497
aI4375
asg9
I0
sa(dp1522
g2
I0
sg3
g4
sg5
S'noteheadBlack'
p1523
sg7
(lp1524
I474
aI4398
aI497
aI4421
asg9
I0
sa(dp1525
g2
I0
sg3
g4
sg5
S'noteheadBlack'
p1526
sg7
(lp1527
I474
aI4421
aI497
aI4444
asg9
I0
sa(dp1528
g2
I0
sg3
g4
sg5
S'accidentalFlat'
p1529
sg7
(lp1530
I335
aI4330
aI356
aI4382
asg9
I0
sa(dp1531
g2
I0
sg3
g4
sg5
S'accidentalFlat'
p1532
sg7
(lp1533
I313
aI4376
aI334
aI4427
asg9
I0
sa(dp1534
g2
I0
sg3
g4
sg5
S'accidentalNatural'
p1535
sg7
(lp1536
I339
aI4400
aI356
aI4462
asg9
I0
sa(dp1537
g2
I0
sg3
g4
sg5
S'augmentationDot'
p1538
sg7
(lp1539
I408
aI4213
aI418
aI4222
asg9
I0
sa(dp1540
g2
I0
sg3
g4
sg5
S'noteheadBlack'
p1541
sg7
(lp1542
I364
aI4352
aI388
aI4375
asg9
I0
sa(dp1543
g2
I0
sg3
g4
sg5
S'noteheadBlack'
p1544
sg7
(lp1545
I364
aI4398
aI388
aI4421
asg9
I0
sa(dp1546
g2
I0
sg3
g4
sg5
S'noteheadBlack'
p1547
sg7
(lp1548
I1531
aI4229
aI1555
aI4251
asg9
I0
sa(dp1549
g2
I0
sg3
g4
sg5
S'noteheadBlack'
p1550
sg7
(lp1551
I1531
aI4375
aI1555
aI4398
asg9
I0
sa(dp1552
g2
I0
sg3
g4
sg5
S'noteheadBlack'
p1553
sg7
(lp1554
I1531
aI4409
aI1555
aI4432
asg9
I0
sa(dp1555
g2
I0
sg3
g4
sg5
S'noteheadBlack'
p1556
sg7
(lp1557
I1531
aI4432
aI1555
aI4455
asg9
I0
sa(dp1558
g2
I0
sg3
g4
sg5
S'accidentalSharp'
p1559
sg7
(lp1560
I1502
aI4357
aI1523
aI4415
asg9
I0
sa(dp1561
g2
I0
sg3
g4
sg5
S'accidentalSharp'
p1562
sg7
(lp1563
I1436
aI4210
aI1457
aI4269
asg9
I0
sa(dp1564
g2
I0
sg3
g4
sg5
S'noteheadBlack'
p1565
sg7
(lp1566
I1465
aI4229
aI1489
aI4251
asg9
I0
sa(dp1567
g2
I0
sg3
g4
sg5
S'ornamentTurnInverted'
p1568
sg7
(lp1569
I1772
aI4134
aI1817
aI4155
asg9
I0
sa(dp1570
g2
I0
sg3
g4
sg5
S'noteheadBlack'
p1571
sg7
(lp1572
I1783
aI4398
aI1807
aI4421
asg9
I0
sa(dp1573
g2
I0
sg3
g4
sg5
S'noteheadBlack'
p1574
sg7
(lp1575
I1783
aI4432
aI1807
aI4455
asg9
I0
sa(dp1576
g2
I0
sg3
g4
sg5
S'noteheadBlack'
p1577
sg7
(lp1578
I1783
aI4455
aI1807
aI4478
asg9
I0
sa(dp1579
g2
I0
sg3
g4
sg5
S'noteheadBlack'
p1580
sg7
(lp1581
I1783
aI4160
aI1807
aI4183
asg9
I0
sa(dp1582
g2
I0
sg3
g4
sg5
S'noteheadBlack'
p1583
sg7
(lp1584
I1641
aI4375
aI1664
aI4398
asg9
I0
sa(dp1585
g2
I0
sg3
g4
sg5
S'noteheadBlack'
p1586
sg7
(lp1587
I1641
aI4409
aI1664
aI4432
asg9
I0
sa(dp1588
g2
I0
sg3
g4
sg5
S'noteheadBlack'
p1589
sg7
(lp1590
I1641
aI4432
aI1664
aI4455
asg9
I0
sa(dp1591
g2
I0
sg3
g4
sg5
S'augmentationDot'
p1592
sg7
(lp1593
I1333
aI4213
aI1342
aI4222
asg9
I0
sa(dp1594
g2
I0
sg3
g4
sg5
S'noteheadBlack'
p1595
sg7
(lp1596
I1300
aI4364
aI1323
aI4387
asg9
I0
sa(dp1597
g2
I0
sg3
g4
sg5
S'noteheadBlack'
p1598
sg7
(lp1599
I1300
aI4409
aI1323
aI4432
asg9
I0
sa(dp1600
g2
I0
sg3
g4
sg5
S'noteheadBlack'
p1601
sg7
(lp1602
I1300
aI4432
aI1323
aI4455
asg9
I0
sa(dp1603
g2
I0
sg3
g4
sg5
S'noteheadBlack'
p1604
sg7
(lp1605
I1300
aI4217
aI1323
aI4240
asg9
I0
sa(dp1606
g2
I0
sg3
g4
sg5
S'noteheadBlack'
p1607
sg7
(lp1608
I1409
aI4364
aI1432
aI4387
asg9
I0
sa(dp1609
g2
I0
sg3
g4
sg5
S'noteheadBlack'
p1610
sg7
(lp1611
I1409
aI4409
aI1432
aI4432
asg9
I0
sa(dp1612
g2
I0
sg3
g4
sg5
S'noteheadBlack'
p1613
sg7
(lp1614
I1409
aI4432
aI1432
aI4455
asg9
I0
sa.