(lp0
(dp1
S'difficult'
p2
I0
sS'pose'
p3
S'Unspecified'
p4
sS'name'
p5
S'restWhole'
p6
sS'bbox'
p7
(lp8
I1224
aI207
aI1258
aI221
asS'truncated'
p9
I0
sa(dp10
g2
I0
sg3
g4
sg5
S'augmentationDot'
p11
sg7
(lp12
I1688
aI213
aI1698
aI224
asg9
I0
sa(dp13
g2
I0
sg3
g4
sg5
S'augmentationDot'
p14
sg7
(lp15
I1688
aI236
aI1698
aI246
asg9
I0
sa(dp16
g2
I0
sg3
g4
sg5
S'augmentationDot'
p17
sg7
(lp18
I1688
aI259
aI1698
aI269
asg9
I0
sa(dp19
g2
I0
sg3
g4
sg5
S'augmentationDot'
p20
sg7
(lp21
I1688
aI350
aI1698
aI361
asg9
I0
sa(dp22
g2
I0
sg3
g4
sg5
S'noteheadBlack'
p23
sg7
(lp24
I2255
aI229
aI2285
aI254
asg9
I0
sa(dp25
g2
I0
sg3
g4
sg5
S'noteheadBlack'
p26
sg7
(lp27
I1944
aI252
aI1973
aI276
asg9
I0
sa(dp28
g2
I0
sg3
g4
sg5
S'augmentationDot'
p29
sg7
(lp30
I347
aI213
aI357
aI224
asg9
I0
sa(dp31
g2
I0
sg3
g4
sg5
S'noteheadHalf'
p32
sg7
(lp33
I305
aI172
aI337
aI197
asg9
I0
sa(dp34
g2
I0
sg3
g4
sg5
S'noteheadHalf'
p35
sg7
(lp36
I305
aI195
aI337
aI219
asg9
I0
sa(dp37
g2
I0
sg3
g4
sg5
S'noteheadHalf'
p38
sg7
(lp39
I305
aI217
aI337
aI242
asg9
I0
sa(dp40
g2
I0
sg3
g4
sg5
S'keyFlat'
p41
sg7
(lp42
I227
aI210
aI248
aI268
asg9
I0
sa(dp43
g2
I0
sg3
g4
sg5
S'clef8'
p44
sg7
(lp45
I161
aI335
aI192
aI357
asg9
I0
sa(dp46
g2
I0
sg3
g4
sg5
S'gClef'
p47
sg7
(lp48
I147
aI166
aI206
aI333
asg9
I0
sa(dp49
g2
I0
sg3
g4
sg5
S'noteheadHalf'
p50
sg7
(lp51
I1646
aI217
aI1678
aI242
asg9
I0
sa(dp52
g2
I0
sg3
g4
sg5
S'noteheadHalf'
p53
sg7
(lp54
I1646
aI240
aI1678
aI265
asg9
I0
sa(dp55
g2
I0
sg3
g4
sg5
S'noteheadHalf'
p56
sg7
(lp57
I1646
aI263
aI1678
aI288
asg9
I0
sa(dp58
g2
I0
sg3
g4
sg5
S'noteheadHalf'
p59
sg7
(lp60
I1646
aI343
aI1678
aI368
asg9
I0
sa(dp61
g2
I0
sg3
g4
sg5
S'restQuarter'
p62
sg7
(lp63
I1644
aI125
aI1668
aI191
asg9
I0
sa(dp64
g2
I0
sg3
g4
sg5
S'augmentationDot'
p65
sg7
(lp66
I347
aI168
aI357
aI178
asg9
I0
sa(dp67
g2
I0
sg3
g4
sg5
S'augmentationDot'
p68
sg7
(lp69
I347
aI190
aI357
aI201
asg9
I0
sa(dp70
g2
I0
sg3
g4
sg5
S'augmentationDot'
p71
sg7
(lp72
I380
aI584
aI390
aI594
asg9
I0
sa(dp73
g2
I0
sg3
g4
sg5
S'augmentationDot'
p74
sg7
(lp75
I380
aI675
aI390
aI685
asg9
I0
sa(dp76
g2
I0
sg3
g4
sg5
S'augmentationDot'
p77
sg7
(lp78
I380
aI607
aI390
aI617
asg9
I0
sa(dp79
g2
I0
sg3
g4
sg5
S'augmentationDot'
p80
sg7
(lp81
I380
aI561
aI390
aI571
asg9
I0
sa(dp82
g2
I0
sg3
g4
sg5
S'augmentationDot'
p83
sg7
(lp84
I380
aI538
aI390
aI548
asg9
I0
sa(dp85
g2
I0
sg3
g4
sg5
S'keyFlat'
p86
sg7
(lp87
I227
aI535
aI248
aI592
asg9
I0
sa(dp88
g2
I0
sg3
g4
sg5
S'coda'
p89
sg7
(lp90
I218
aI432
aI279
aI512
asg9
I0
sa(dp91
g2
I0
sg3
g4
sg5
S'gClef'
p92
sg7
(lp93
I147
aI491
aI206
aI658
asg9
I0
sa(dp94
g2
I0
sg3
g4
sg5
S'clef8'
p95
sg7
(lp96
I161
aI660
aI192
aI682
asg9
I0
sa(dp97
g2
I0
sg3
g4
sg5
S'augmentationDot'
p98
sg7
(lp99
I380
aI629
aI390
aI640
asg9
I0
sa(dp100
g2
I0
sg3
g4
sg5
S'noteheadHalf'
p101
sg7
(lp102
I338
aI622
aI369
aI647
asg9
I0
sa(dp103
g2
I0
sg3
g4
sg5
S'noteheadHalf'
p104
sg7
(lp105
I338
aI576
aI369
aI601
asg9
I0
sa(dp106
g2
I0
sg3
g4
sg5
S'noteheadHalf'
p107
sg7
(lp108
I305
aI668
aI337
aI693
asg9
I0
sa(dp109
g2
I0
sg3
g4
sg5
S'noteheadHalf'
p110
sg7
(lp111
I305
aI588
aI337
aI613
asg9
I0
sa(dp112
g2
I0
sg3
g4
sg5
S'noteheadHalf'
p113
sg7
(lp114
I305
aI565
aI337
aI590
asg9
I0
sa(dp115
g2
I0
sg3
g4
sg5
S'noteheadHalf'
p116
sg7
(lp117
I305
aI542
aI337
aI567
asg9
I0
sa(dp118
g2
I0
sg3
g4
sg5
S'noteheadBlack'
p119
sg7
(lp120
I1852
aI947
aI1881
aI972
asg9
I0
sa(dp121
g2
I0
sg3
g4
sg5
S'noteheadBlack'
p122
sg7
(lp123
I2213
aI947
aI2243
aI972
asg9
I0
sa(dp124
g2
I0
sg3
g4
sg5
S'noteheadBlack'
p125
sg7
(lp126
I305
aI947
aI335
aI972
asg9
I0
sa(dp127
g2
I0
sg3
g4
sg5
S'noteheadBlack'
p128
sg7
(lp129
I1491
aI947
aI1520
aI972
asg9
I0
sa(dp130
g2
I0
sg3
g4
sg5
S'keyFlat'
p131
sg7
(lp132
I227
aI860
aI248
aI917
asg9
I0
sa(dp133
g2
I0
sg3
g4
sg5
S'clef8'
p134
sg7
(lp135
I161
aI985
aI192
aI1007
asg9
I0
sa(dp136
g2
I0
sg3
g4
sg5
S'gClef'
p137
sg7
(lp138
I147
aI816
aI206
aI983
asg9
I0
sa(dp139
g2
I0
sg3
g4
sg5
S'noteheadBlack'
p140
sg7
(lp141
I1027
aI947
aI1057
aI972
asg9
I0
sa(dp142
g2
I0
sg3
g4
sg5
S'noteheadBlack'
p143
sg7
(lp144
I666
aI947
aI696
aI972
asg9
I0
sa(dp145
g2
I0
sg3
g4
sg5
S'gClef'
p146
sg7
(lp147
I147
aI1141
aI206
aI1308
asg9
I0
sa(dp148
g2
I0
sg3
g4
sg5
S'clef8'
p149
sg7
(lp150
I161
aI1310
aI192
aI1332
asg9
I0
sa(dp151
g2
I0
sg3
g4
sg5
S'keyFlat'
p152
sg7
(lp153
I227
aI1185
aI248
aI1242
asg9
I0
sa(dp154
g2
I0
sg3
g4
sg5
S'noteheadBlack'
p155
sg7
(lp156
I305
aI1272
aI335
aI1297
asg9
I0
sa(dp157
g2
I0
sg3
g4
sg5
S'restHalf'
p158
sg7
(lp159
I636
aI1236
aI670
aI1250
asg9
I0
sa(dp160
g2
I0
sg3
g4
sg5
S'keyFlat'
p161
sg7
(lp162
I227
aI1509
aI248
aI1567
asg9
I0
sa(dp163
g2
I0
sg3
g4
sg5
S'clef8'
p164
sg7
(lp165
I161
aI1634
aI192
aI1657
asg9
I0
sa(dp166
g2
I0
sg3
g4
sg5
S'gClef'
p167
sg7
(lp168
I147
aI1466
aI206
aI1633
asg9
I0
sa.