(lp0
(dp1
S'difficult'
p2
I0
sS'pose'
p3
S'Unspecified'
p4
sS'name'
p5
S'noteheadBlack'
p6
sS'bbox'
p7
(lp8
I1998
aI490
aI2027
aI514
asS'truncated'
p9
I0
sa(dp10
g2
I0
sg3
g4
sg5
S'dynamicForte'
p11
sg7
(lp12
I1992
aI318
aI2040
aI373
asg9
I0
sa(dp13
g2
I0
sg3
g4
sg5
S'noteheadHalf'
p14
sg7
(lp15
I1998
aI650
aI2027
aI675
asg9
I0
sa(dp16
g2
I0
sg3
g4
sg5
S'noteheadHalf'
p17
sg7
(lp18
I1998
aI868
aI2027
aI893
asg9
I0
sa(dp19
g2
I0
sg3
g4
sg5
S'noteheadHalf'
p20
sg7
(lp21
I1998
aI1154
aI2027
aI1179
asg9
I0
sa(dp22
g2
I0
sg3
g4
sg5
S'segno'
p23
sg7
(lp24
I1947
aI252
aI2003
aI332
asg9
I0
sa(dp25
g2
I0
sg3
g4
sg5
S'noteheadHalf'
p26
sg7
(lp27
I1894
aI1154
aI1923
aI1179
asg9
I0
sa(dp28
g2
I0
sg3
g4
sg5
S'noteheadHalf'
p29
sg7
(lp30
I1894
aI628
aI1923
aI652
asg9
I0
sa(dp31
g2
I0
sg3
g4
sg5
S'noteheadHalf'
p32
sg7
(lp33
I1818
aI410
aI1847
aI435
asg9
I0
sa(dp34
g2
I0
sg3
g4
sg5
S'noteheadHalf'
p35
sg7
(lp36
I1818
aI628
aI1847
aI652
asg9
I0
sa(dp37
g2
I0
sg3
g4
sg5
S'noteheadHalf'
p38
sg7
(lp39
I1818
aI1154
aI1847
aI1179
asg9
I0
sa(dp40
g2
I0
sg3
g4
sg5
S'noteheadHalf'
p41
sg7
(lp42
I1719
aI605
aI1748
aI629
asg9
I0
sa(dp43
g2
I0
sg3
g4
sg5
S'noteheadHalf'
p44
sg7
(lp45
I1719
aI387
aI1748
aI412
asg9
I0
sa(dp46
g2
I0
sg3
g4
sg5
S'noteheadHalf'
p47
sg7
(lp48
I1719
aI1154
aI1748
aI1179
asg9
I0
sa(dp49
g2
I0
sg3
g4
sg5
S'noteheadHalf'
p50
sg7
(lp51
I1894
aI444
aI1923
aI469
asg9
I0
sa(dp52
g2
I0
sg3
g4
sg5
S'noteheadBlack'
p53
sg7
(lp54
I2509
aI433
aI2538
aI457
asg9
I0
sa(dp55
g2
I0
sg3
g4
sg5
S'noteheadHalf'
p56
sg7
(lp57
I2441
aI1154
aI2470
aI1179
asg9
I0
sa(dp58
g2
I0
sg3
g4
sg5
S'noteheadBlack'
p59
sg7
(lp60
I2441
aI410
aI2470
aI435
asg9
I0
sa(dp61
g2
I0
sg3
g4
sg5
S'noteheadHalf'
p62
sg7
(lp63
I2441
aI639
aI2470
aI664
asg9
I0
sa(dp64
g2
I0
sg3
g4
sg5
S'noteheadHalf'
p65
sg7
(lp66
I2415
aI845
aI2444
aI870
asg9
I0
sa(dp67
g2
I0
sg3
g4
sg5
S'noteheadHalf'
p68
sg7
(lp69
I2441
aI845
aI2470
aI870
asg9
I0
sa(dp70
g2
I0
sg3
g4
sg5
S'restWhole'
p71
sg7
(lp72
I1133
aI651
aI1163
aI663
asg9
I0
sa(dp73
g2
I0
sg3
g4
sg5
S'restWhole'
p74
sg7
(lp75
I1691
aI892
aI1721
aI903
asg9
I0
sa(dp76
g2
I0
sg3
g4
sg5
S'restWhole'
p77
sg7
(lp78
I1502
aI892
aI1532
aI903
asg9
I0
sa(dp79
g2
I0
sg3
g4
sg5
S'restWhole'
p80
sg7
(lp81
I1312
aI892
aI1342
aI903
asg9
I0
sa(dp82
g2
I0
sg3
g4
sg5
S'restWhole'
p83
sg7
(lp84
I1133
aI892
aI1163
aI903
asg9
I0
sa(dp85
g2
I0
sg3
g4
sg5
S'restWhole'
p86
sg7
(lp87
I955
aI892
aI985
aI903
asg9
I0
sa(dp88
g2
I0
sg3
g4
sg5
S'restWhole'
p89
sg7
(lp90
I955
aI651
aI985
aI663
asg9
I0
sa(dp91
g2
I0
sg3
g4
sg5
S'restWhole'
p92
sg7
(lp93
I764
aI892
aI794
aI903
asg9
I0
sa(dp94
g2
I0
sg3
g4
sg5
S'restWhole'
p95
sg7
(lp96
I764
aI651
aI794
aI663
asg9
I0
sa(dp97
g2
I0
sg3
g4
sg5
S'restWhole'
p98
sg7
(lp99
I1871
aI892
aI1901
aI903
asg9
I0
sa(dp100
g2
I0
sg3
g4
sg5
S'noteheadBlack'
p101
sg7
(lp102
I2197
aI421
aI2226
aI446
asg9
I0
sa(dp103
g2
I0
sg3
g4
sg5
S'accidentalFlat'
p104
sg7
(lp105
I2171
aI392
aI2189
aI449
asg9
I0
sa(dp106
g2
I0
sg3
g4
sg5
S'noteheadBlack'
p107
sg7
(lp108
I2303
aI444
aI2332
aI469
asg9
I0
sa(dp109
g2
I0
sg3
g4
sg5
S'noteheadHalf'
p110
sg7
(lp111
I2303
aI650
aI2332
aI675
asg9
I0
sa(dp112
g2
I0
sg3
g4
sg5
S'noteheadHalf'
p113
sg7
(lp114
I2303
aI879
aI2332
aI904
asg9
I0
sa(dp115
g2
I0
sg3
g4
sg5
S'noteheadHalf'
p116
sg7
(lp117
I2303
aI1154
aI2332
aI1179
asg9
I0
sa(dp118
g2
I0
sg3
g4
sg5
S'noteheadHalf'
p119
sg7
(lp120
I2133
aI1154
aI2162
aI1179
asg9
I0
sa(dp121
g2
I0
sg3
g4
sg5
S'noteheadBlack'
p122
sg7
(lp123
I2065
aI467
aI2094
aI492
asg9
I0
sa(dp124
g2
I0
sg3
g4
sg5
S'noteheadBlack'
p125
sg7
(lp126
I2133
aI410
aI2162
aI435
asg9
I0
sa(dp127
g2
I0
sg3
g4
sg5
S'noteheadHalf'
p128
sg7
(lp129
I2133
aI628
aI2162
aI652
asg9
I0
sa(dp130
g2
I0
sg3
g4
sg5
S'noteheadHalf'
p131
sg7
(lp132
I2133
aI845
aI2162
aI870
asg9
I0
sa(dp133
g2
I0
sg3
g4
sg5
S'noteheadBlack'
p134
sg7
(lp135
I2371
aI478
aI2400
aI503
asg9
I0
sa(dp136
g2
I0
sg3
g4
sg5
S'noteheadHalf'
p137
sg7
(lp138
I901
aI387
aI930
aI412
asg9
I0
sa(dp139
g2
I0
sg3
g4
sg5
S'noteheadHalf'
p140
sg7
(lp141
I901
aI1154
aI930
aI1179
asg9
I0
sa(dp142
g2
I0
sg3
g4
sg5
S'noteheadHalf'
p143
sg7
(lp144
I775
aI364
aI804
aI389
asg9
I0
sa(dp145
g2
I0
sg3
g4
sg5
S'noteheadHalf'
p146
sg7
(lp147
I801
aI364
aI830
aI389
asg9
I0
sa(dp148
g2
I0
sg3
g4
sg5
S'noteheadHalf'
p149
sg7
(lp150
I801
aI1154
aI830
aI1179
asg9
I0
sa(dp151
g2
I0
sg3
g4
sg5
S'noteheadHalf'
p152
sg7
(lp153
I1081
aI387
aI1110
aI412
asg9
I0
sa(dp154
g2
I0
sg3
g4
sg5
S'noteheadHalf'
p155
sg7
(lp156
I1081
aI1154
aI1110
aI1179
asg9
I0
sa(dp157
g2
I0
sg3
g4
sg5
S'noteheadHalf'
p158
sg7
(lp159
I981
aI364
aI1010
aI389
asg9
I0
sa(dp160
g2
I0
sg3
g4
sg5
S'noteheadHalf'
p161
sg7
(lp162
I981
aI1154
aI1010
aI1179
asg9
I0
sa(dp163
g2
I0
sg3
g4
sg5
S'segno'
p164
sg7
(lp165
I371
aI269
aI426
aI348
asg9
I0
sa(dp166
g2
I0
sg3
g4
sg5
S'timeSigCommon'
p167
sg7
(lp168
I436
aI653
aI474
aI695
asg9
I0
sa(dp169
g2
I0
sg3
g4
sg5
S'gClef'
p170
sg7
(lp171
I341
aI839
aI398
aI995
asg9
I0
sa(dp172
g2
I0
sg3
g4
sg5
S'timeSigCommon'
p173
sg7
(lp174
I436
aI893
aI474
aI936
asg9
I0
sa(dp175
g2
I0
sg3
g4
sg5
S'noteheadHalf'
p176
sg7
(lp177
I519
aI1154
aI548
aI1179
asg9
I0
sa(dp178
g2
I0
sg3
g4
sg5
S'fClef'
p179
sg7
(lp180
I341
aI1109
aI401
aI1182
asg9
I0
sa(dp181
g2
I0
sg3
g4
sg5
S'timeSigCommon'
p182
sg7
(lp183
I436
aI1134
aI474
aI1176
asg9
I0
sa(dp184
g2
I0
sg3
g4
sg5
S'gClef'
p185
sg7
(lp186
I341
aI598
aI398
aI755
asg9
I0
sa(dp187
g2
I0
sg3
g4
sg5
S'restWhole'
p188
sg7
(lp189
I560
aI651
aI590
aI663
asg9
I0
sa(dp190
g2
I0
sg3
g4
sg5
S'restWhole'
p191
sg7
(lp192
I560
aI892
aI590
aI903
asg9
I0
sa(dp193
g2
I0
sg3
g4
sg5
S'noteheadHalf'
p194
sg7
(lp195
I519
aI387
aI548
aI412
asg9
I0
sa(dp196
g2
I0
sg3
g4
sg5
S'dynamicMP'
p197
sg7
(lp198
I503
aI331
aI571
aI372
asg9
I0
sa(dp199
g2
I0
sg3
g4
sg5
S'gClef'
p200
sg7
(lp201
I341
aI358
aI398
aI514
asg9
I0
sa(dp202
g2
I0
sg3
g4
sg5
S'timeSigCommon'
p203
sg7
(lp204
I436
aI412
aI474
aI455
asg9
I0
sa(dp205
g2
I0
sg3
g4
sg5
S'noteheadHalf'
p206
sg7
(lp207
I721
aI387
aI750
aI412
asg9
I0
sa(dp208
g2
I0
sg3
g4
sg5
S'noteheadHalf'
p209
sg7
(lp210
I721
aI1154
aI750
aI1179
asg9
I0
sa(dp211
g2
I0
sg3
g4
sg5
S'accidentalFlat'
p212
sg7
(lp213
I694
aI358
aI713
aI414
asg9
I0
sa(dp214
g2
I0
sg3
g4
sg5
S'noteheadHalf'
p215
sg7
(lp216
I600
aI364
aI629
aI389
asg9
I0
sa(dp217
g2
I0
sg3
g4
sg5
S'noteheadHalf'
p218
sg7
(lp219
I600
aI1154
aI629
aI1179
asg9
I0
sa(dp220
g2
I0
sg3
g4
sg5
S'noteheadHalf'
p221
sg7
(lp222
I1459
aI628
aI1488
aI652
asg9
I0
sa(dp223
g2
I0
sg3
g4
sg5
S'noteheadHalf'
p224
sg7
(lp225
I1459
aI1154
aI1488
aI1179
asg9
I0
sa(dp226
g2
I0
sg3
g4
sg5
S'noteheadHalf'
p227
sg7
(lp228
I1459
aI410
aI1488
aI435
asg9
I0
sa(dp229
g2
I0
sg3
g4
sg5
S'accidentalFlat'
p230
sg7
(lp231
I1433
aI598
aI1451
aI655
asg9
I0
sa(dp232
g2
I0
sg3
g4
sg5
S'noteheadHalf'
p233
sg7
(lp234
I1340
aI387
aI1369
aI412
asg9
I0
sa(dp235
g2
I0
sg3
g4
sg5
S'noteheadHalf'
p236
sg7
(lp237
I1340
aI605
aI1369
aI629
asg9
I0
sa(dp238
g2
I0
sg3
g4
sg5
S'noteheadHalf'
p239
sg7
(lp240
I1340
aI1154
aI1369
aI1179
asg9
I0
sa(dp241
g2
I0
sg3
g4
sg5
S'noteheadHalf'
p242
sg7
(lp243
I1539
aI1154
aI1567
aI1179
asg9
I0
sa(dp244
g2
I0
sg3
g4
sg5
S'noteheadHalf'
p245
sg7
(lp246
I1638
aI410
aI1667
aI435
asg9
I0
sa(dp247
g2
I0
sg3
g4
sg5
S'noteheadHalf'
p248
sg7
(lp249
I1638
aI628
aI1667
aI652
asg9
I0
sa(dp250
g2
I0
sg3
g4
sg5
S'noteheadHalf'
p251
sg7
(lp252
I1638
aI1154
aI1667
aI1179
asg9
I0
sa(dp253
g2
I0
sg3
g4
sg5
S'noteheadHalf'
p254
sg7
(lp255
I1539
aI399
aI1567
aI423
asg9
I0
sa(dp256
g2
I0
sg3
g4
sg5
S'noteheadHalf'
p257
sg7
(lp258
I1513
aI605
aI1542
aI629
asg9
I0
sa(dp259
g2
I0
sg3
g4
sg5
S'noteheadHalf'
p260
sg7
(lp261
I1539
aI605
aI1567
aI629
asg9
I0
sa(dp262
g2
I0
sg3
g4
sg5
S'noteheadHalf'
p263
sg7
(lp264
I1259
aI410
aI1288
aI435
asg9
I0
sa(dp265
g2
I0
sg3
g4
sg5
S'noteheadHalf'
p266
sg7
(lp267
I1158
aI1154
aI1187
aI1179
asg9
I0
sa(dp268
g2
I0
sg3
g4
sg5
S'dynamicMF'
p269
sg7
(lp270
I1245
aI318
aI1320
aI373
asg9
I0
sa(dp271
g2
I0
sg3
g4
sg5
S'noteheadHalf'
p272
sg7
(lp273
I1259
aI628
aI1288
aI652
asg9
I0
sa(dp274
g2
I0
sg3
g4
sg5
S'noteheadHalf'
p275
sg7
(lp276
I1259
aI1154
aI1288
aI1179
asg9
I0
sa(dp277
g2
I0
sg3
g4
sg5
S'segno'
p278
sg7
(lp279
I1209
aI240
aI1265
aI320
asg9
I0
sa(dp280
g2
I0
sg3
g4
sg5
S'noteheadHalf'
p281
sg7
(lp282
I1158
aI387
aI1187
aI412
asg9
I0
sa(dp283
g2
I0
sg3
g4
sg5
S'noteheadBlack'
p284
sg7
(lp285
I1846
aI1672
aI1875
aI1697
asg9
I0
sa(dp286
g2
I0
sg3
g4
sg5
S'noteheadBlack'
p287
sg7
(lp288
I1846
aI1879
aI1875
aI1903
asg9
I0
sa(dp289
g2
I0
sg3
g4
sg5
S'noteheadHalf'
p290
sg7
(lp291
I1846
aI2119
aI1875
aI2144
asg9
I0
sa(dp292
g2
I0
sg3
g4
sg5
S'noteheadHalf'
p293
sg7
(lp294
I1846
aI2382
aI1875
aI2407
asg9
I0
sa(dp295
g2
I0
sg3
g4
sg5
S'noteheadBlack'
p296
sg7
(lp297
I1442
aI1627
aI1471
aI1651
asg9
I0
sa(dp298
g2
I0
sg3
g4
sg5
S'dynamicForte'
p299
sg7
(lp300
I1919
aI1524
aI1967
aI1578
asg9
I0
sa(dp301
g2
I0
sg3
g4
sg5
S'noteheadBlack'
p302
sg7
(lp303
I1993
aI1604
aI2022
aI1628
asg9
I0
sa(dp304
g2
I0
sg3
g4
sg5
S'noteheadBlack'
p305
sg7
(lp306
I1925
aI1592
aI1954
aI1617
asg9
I0
sa(dp307
g2
I0
sg3
g4
sg5
S'noteheadBlack'
p308
sg7
(lp309
I1925
aI1856
aI1954
aI1880
asg9
I0
sa(dp310
g2
I0
sg3
g4
sg5
S'augmentationDot'
p311
sg7
(lp312
I2031
aI1600
aI2040
aI1609
asg9
I0
sa(dp313
g2
I0
sg3
g4
sg5
S'noteheadHalf'
p314
sg7
(lp315
I1993
aI2382
aI2022
aI2407
asg9
I0
sa(dp316
g2
I0
sg3
g4
sg5
S'noteheadHalf'
p317
sg7
(lp318
I1993
aI2153
aI2022
aI2178
asg9
I0
sa(dp319
g2
I0
sg3
g4
sg5
S'noteheadBlack'
p320
sg7
(lp321
I1993
aI1879
aI2022
aI1903
asg9
I0
sa(dp322
g2
I0
sg3
g4
sg5
S'noteheadBlack'
p323
sg7
(lp324
I1442
aI1901
aI1471
aI1926
asg9
I0
sa(dp325
g2
I0
sg3
g4
sg5
S'noteheadBlack'
p326
sg7
(lp327
I1540
aI1615
aI1569
aI1640
asg9
I0
sa(dp328
g2
I0
sg3
g4
sg5
S'noteheadBlack'
p329
sg7
(lp330
I1540
aI1913
aI1569
aI1937
asg9
I0
sa(dp331
g2
I0
sg3
g4
sg5
S'noteheadHalf'
p332
sg7
(lp333
I1540
aI2119
aI1569
aI2144
asg9
I0
sa(dp334
g2
I0
sg3
g4
sg5
S'noteheadHalf'
p335
sg7
(lp336
I1540
aI2382
aI1569
aI2407
asg9
I0
sa(dp337
g2
I0
sg3
g4
sg5
S'noteheadBlack'
p338
sg7
(lp339
I1683
aI1879
aI1712
aI1903
asg9
I0
sa(dp340
g2
I0
sg3
g4
sg5
S'noteheadHalf'
p341
sg7
(lp342
I1683
aI2096
aI1712
aI2121
asg9
I0
sa(dp343
g2
I0
sg3
g4
sg5
S'noteheadHalf'
p344
sg7
(lp345
I1683
aI2382
aI1712
aI2407
asg9
I0
sa(dp346
g2
I0
sg3
g4
sg5
S'noteheadBlack'
p347
sg7
(lp348
I1683
aI1592
aI1712
aI1617
asg9
I0
sa(dp349
g2
I0
sg3
g4
sg5
S'noteheadBlack'
p350
sg7
(lp351
I1754
aI1615
aI1783
aI1640
asg9
I0
sa(dp352
g2
I0
sg3
g4
sg5
S'noteheadBlack'
p353
sg7
(lp354
I1605
aI1638
aI1634
aI1663
asg9
I0
sa(dp355
g2
I0
sg3
g4
sg5
S'noteheadBlack'
p356
sg7
(lp357
I1754
aI1833
aI1783
aI1857
asg9
I0
sa(dp358
g2
I0
sg3
g4
sg5
S'noteheadBlack'
p359
sg7
(lp360
I1605
aI1936
aI1634
aI1960
asg9
I0
sa(dp361
g2
I0
sg3
g4
sg5
S'noteheadBlack'
p362
sg7
(lp363
I2426
aI1638
aI2454
aI1663
asg9
I0
sa(dp364
g2
I0
sg3
g4
sg5
S'noteheadBlack'
p365
sg7
(lp366
I2470
aI1672
aI2499
aI1697
asg9
I0
sa(dp367
g2
I0
sg3
g4
sg5
S'noteheadBlack'
p368
sg7
(lp369
I2470
aI1856
aI2499
aI1880
asg9
I0
sa(dp370
g2
I0
sg3
g4
sg5
S'noteheadBlack'
p371
sg7
(lp372
I2470
aI2130
aI2499
aI2155
asg9
I0
sa(dp373
g2
I0
sg3
g4
sg5
S'noteheadBlack'
p374
sg7
(lp375
I2370
aI1695
aI2399
aI1720
asg9
I0
sa(dp376
g2
I0
sg3
g4
sg5
S'noteheadBlack'
p377
sg7
(lp378
I2314
aI1718
aI2343
aI1743
asg9
I0
sa(dp379
g2
I0
sg3
g4
sg5
S'noteheadBlack'
p380
sg7
(lp381
I2370
aI1913
aI2399
aI1937
asg9
I0
sa(dp382
g2
I0
sg3
g4
sg5
S'noteheadBlack'
p383
sg7
(lp384
I2370
aI2119
aI2399
aI2144
asg9
I0
sa(dp385
g2
I0
sg3
g4
sg5
S'noteheadHalf'
p386
sg7
(lp387
I2370
aI2382
aI2399
aI2407
asg9
I0
sa(dp388
g2
I0
sg3
g4
sg5
S'accidentalFlat'
p389
sg7
(lp390
I2444
aI2101
aI2462
aI2158
asg9
I0
sa(dp391
g2
I0
sg3
g4
sg5
S'noteheadBlack'
p392
sg7
(lp393
I2520
aI1661
aI2549
aI1686
asg9
I0
sa(dp394
g2
I0
sg3
g4
sg5
S'flag8thDown'
p395
sg7
(lp396
I2099
aI1639
aI2125
aI1707
asg9
I0
sa(dp397
g2
I0
sg3
g4
sg5
S'noteheadBlack'
p398
sg7
(lp399
I2170
aI1638
aI2199
aI1663
asg9
I0
sa(dp400
g2
I0
sg3
g4
sg5
S'noteheadBlack'
p401
sg7
(lp402
I2170
aI1936
aI2199
aI1960
asg9
I0
sa(dp403
g2
I0
sg3
g4
sg5
S'noteheadBlack'
p404
sg7
(lp405
I2170
aI2199
aI2199
aI2223
asg9
I0
sa(dp406
g2
I0
sg3
g4
sg5
S'noteheadHalf'
p407
sg7
(lp408
I2170
aI2382
aI2199
aI2407
asg9
I0
sa(dp409
g2
I0
sg3
g4
sg5
S'noteheadBlack'
p410
sg7
(lp411
I2062
aI1901
aI2091
aI1926
asg9
I0
sa(dp412
g2
I0
sg3
g4
sg5
S'noteheadBlack'
p413
sg7
(lp414
I2097
aI1615
aI2126
aI1640
asg9
I0
sa(dp415
g2
I0
sg3
g4
sg5
S'noteheadBlack'
p416
sg7
(lp417
I2270
aI1958
aI2299
aI1983
asg9
I0
sa(dp418
g2
I0
sg3
g4
sg5
S'noteheadBlack'
p419
sg7
(lp420
I2220
aI1650
aI2249
aI1674
asg9
I0
sa(dp421
g2
I0
sg3
g4
sg5
S'noteheadBlack'
p422
sg7
(lp423
I2270
aI1638
aI2299
aI1663
asg9
I0
sa(dp424
g2
I0
sg3
g4
sg5
S'noteheadBlack'
p425
sg7
(lp426
I2270
aI2176
aI2299
aI2201
asg9
I0
sa(dp427
g2
I0
sg3
g4
sg5
S'noteheadBlack'
p428
sg7
(lp429
I575
aI1638
aI604
aI1663
asg9
I0
sa(dp430
g2
I0
sg3
g4
sg5
S'noteheadHalf'
p431
sg7
(lp432
I575
aI1879
aI604
aI1903
asg9
I0
sa(dp433
g2
I0
sg3
g4
sg5
S'noteheadHalf'
p434
sg7
(lp435
I575
aI2096
aI604
aI2121
asg9
I0
sa(dp436
g2
I0
sg3
g4
sg5
S'noteheadHalf'
p437
sg7
(lp438
I575
aI2382
aI604
aI2407
asg9
I0
sa(dp439
g2
I0
sg3
g4
sg5
S'noteheadBlack'
p440
sg7
(lp441
I652
aI1615
aI681
aI1640
asg9
I0
sa(dp442
g2
I0
sg3
g4
sg5
S'noteheadBlack'
p443
sg7
(lp444
I887
aI1695
aI916
aI1720
asg9
I0
sa(dp445
g2
I0
sg3
g4
sg5
S'noteheadBlack'
p446
sg7
(lp447
I786
aI1661
aI815
aI1686
asg9
I0
sa(dp448
g2
I0
sg3
g4
sg5
S'noteheadBlack'
p449
sg7
(lp450
I887
aI1958
aI916
aI1983
asg9
I0
sa(dp451
g2
I0
sg3
g4
sg5
S'noteheadHalf'
p452
sg7
(lp453
I887
aI2119
aI916
aI2144
asg9
I0
sa(dp454
g2
I0
sg3
g4
sg5
S'noteheadHalf'
p455
sg7
(lp456
I887
aI2382
aI916
aI2407
asg9
I0
sa(dp457
g2
I0
sg3
g4
sg5
S'noteheadBlack'
p458
sg7
(lp459
I717
aI1638
aI746
aI1663
asg9
I0
sa(dp460
g2
I0
sg3
g4
sg5
S'noteheadHalf'
p461
sg7
(lp462
I717
aI1913
aI746
aI1937
asg9
I0
sa(dp463
g2
I0
sg3
g4
sg5
S'noteheadHalf'
p464
sg7
(lp465
I717
aI2096
aI746
aI2121
asg9
I0
sa(dp466
g2
I0
sg3
g4
sg5
S'noteheadHalf'
p467
sg7
(lp468
I717
aI2382
aI746
aI2407
asg9
I0
sa(dp469
g2
I0
sg3
g4
sg5
S'gClef'
p470
sg7
(lp471
I147
aI2067
aI204
aI2223
asg9
I0
sa(dp472
g2
I0
sg3
g4
sg5
S'fClef'
p473
sg7
(lp474
I147
aI2337
aI208
aI2410
asg9
I0
sa(dp475
g2
I0
sg3
g4
sg5
S'noteheadBlack'
p476
sg7
(lp477
I261
aI1672
aI290
aI1697
asg9
I0
sa(dp478
g2
I0
sg3
g4
sg5
S'noteheadHalf'
p479
sg7
(lp480
I261
aI1879
aI290
aI1903
asg9
I0
sa(dp481
g2
I0
sg3
g4
sg5
S'noteheadHalf'
p482
sg7
(lp483
I261
aI2096
aI290
aI2121
asg9
I0
sa(dp484
g2
I0
sg3
g4
sg5
S'noteheadHalf'
p485
sg7
(lp486
I261
aI2382
aI290
aI2407
asg9
I0
sa(dp487
g2
I0
sg3
g4
sg5
S'gClef'
p488
sg7
(lp489
I147
aI1586
aI204
aI1742
asg9
I0
sa(dp490
g2
I0
sg3
g4
sg5
S'gClef'
p491
sg7
(lp492
I147
aI1826
aI204
aI1983
asg9
I0
sa(dp493
g2
I0
sg3
g4
sg5
S'noteheadHalf'
p494
sg7
(lp495
I405
aI2073
aI434
aI2098
asg9
I0
sa(dp496
g2
I0
sg3
g4
sg5
S'noteheadHalf'
p497
sg7
(lp498
I405
aI2382
aI434
aI2407
asg9
I0
sa(dp499
g2
I0
sg3
g4
sg5
S'noteheadHalf'
p500
sg7
(lp501
I405
aI1856
aI434
aI1880
asg9
I0
sa(dp502
g2
I0
sg3
g4
sg5
S'noteheadBlack'
p503
sg7
(lp504
I482
aI1592
aI511
aI1617
asg9
I0
sa(dp505
g2
I0
sg3
g4
sg5
S'noteheadBlack'
p506
sg7
(lp507
I327
aI1695
aI356
aI1720
asg9
I0
sa(dp508
g2
I0
sg3
g4
sg5
S'noteheadBlack'
p509
sg7
(lp510
I405
aI1638
aI434
aI1663
asg9
I0
sa(dp511
g2
I0
sg3
g4
sg5
S'accidentalFlat'
p512
sg7
(lp513
I1084
aI1861
aI1102
aI1917
asg9
I0
sa(dp514
g2
I0
sg3
g4
sg5
S'noteheadBlack'
p515
sg7
(lp516
I1225
aI1627
aI1254
aI1651
asg9
I0
sa(dp517
g2
I0
sg3
g4
sg5
S'noteheadBlack'
p518
sg7
(lp519
I1225
aI1913
aI1254
aI1937
asg9
I0
sa(dp520
g2
I0
sg3
g4
sg5
S'noteheadHalf'
p521
sg7
(lp522
I1225
aI2119
aI1254
aI2144
asg9
I0
sa(dp523
g2
I0
sg3
g4
sg5
S'noteheadHalf'
p524
sg7
(lp525
I1225
aI2382
aI1254
aI2407
asg9
I0
sa(dp526
g2
I0
sg3
g4
sg5
S'noteheadHalf'
p527
sg7
(lp528
I1375
aI2382
aI1404
aI2407
asg9
I0
sa(dp529
g2
I0
sg3
g4
sg5
S'noteheadBlack'
p530
sg7
(lp531
I1299
aI1592
aI1328
aI1617
asg9
I0
sa(dp532
g2
I0
sg3
g4
sg5
S'noteheadBlack'
p533
sg7
(lp534
I1299
aI1947
aI1328
aI1972
asg9
I0
sa(dp535
g2
I0
sg3
g4
sg5
S'noteheadBlack'
p536
sg7
(lp537
I1375
aI1547
aI1404
aI1571
asg9
I0
sa(dp538
g2
I0
sg3
g4
sg5
S'noteheadBlack'
p539
sg7
(lp540
I1375
aI1879
aI1404
aI1903
asg9
I0
sa(dp541
g2
I0
sg3
g4
sg5
S'noteheadHalf'
p542
sg7
(lp543
I1375
aI2108
aI1404
aI2132
asg9
I0
sa(dp544
g2
I0
sg3
g4
sg5
S'noteheadBlack'
p545
sg7
(lp546
I958
aI1936
aI987
aI1960
asg9
I0
sa(dp547
g2
I0
sg3
g4
sg5
S'noteheadBlack'
p548
sg7
(lp549
I958
aI1718
aI987
aI1743
asg9
I0
sa(dp550
g2
I0
sg3
g4
sg5
S'noteheadBlack'
p551
sg7
(lp552
I1036
aI1672
aI1065
aI1697
asg9
I0
sa(dp553
g2
I0
sg3
g4
sg5
S'noteheadBlack'
p554
sg7
(lp555
I1110
aI1615
aI1139
aI1640
asg9
I0
sa(dp556
g2
I0
sg3
g4
sg5
S'noteheadHalf'
p557
sg7
(lp558
I1036
aI2382
aI1065
aI2407
asg9
I0
sa(dp559
g2
I0
sg3
g4
sg5
S'noteheadBlack'
p560
sg7
(lp561
I1036
aI1879
aI1065
aI1903
asg9
I0
sa(dp562
g2
I0
sg3
g4
sg5
S'noteheadBlack'
p563
sg7
(lp564
I1110
aI1890
aI1139
aI1915
asg9
I0
sa(dp565
g2
I0
sg3
g4
sg5
S'noteheadHalf'
p566
sg7
(lp567
I1036
aI2096
aI1065
aI2121
asg9
I0
sa(dp568
g2
I0
sg3
g4
sg5
S'accidentalNatural'
p569
sg7
(lp570
I1836
aI2871
aI1852
aI2932
asg9
I0
sa(dp571
g2
I0
sg3
g4
sg5
S'noteheadBlack'
p572
sg7
(lp573
I1927
aI2901
aI1956
aI2925
asg9
I0
sa(dp574
g2
I0
sg3
g4
sg5
S'noteheadBlack'
p575
sg7
(lp576
I1927
aI3084
aI1956
aI3109
asg9
I0
sa(dp577
g2
I0
sg3
g4
sg5
S'noteheadBlack'
p578
sg7
(lp579
I1784
aI2889
aI1812
aI2914
asg9
I0
sa(dp580
g2
I0
sg3
g4
sg5
S'noteheadBlack'
p581
sg7
(lp582
I1860
aI2889
aI1889
aI2914
asg9
I0
sa(dp583
g2
I0
sg3
g4
sg5
S'noteheadBlack'
p584
sg7
(lp585
I1860
aI3370
aI1889
aI3395
asg9
I0
sa(dp586
g2
I0
sg3
g4
sg5
S'noteheadBlack'
p587
sg7
(lp588
I2024
aI3107
aI2053
aI3131
asg9
I0
sa(dp589
g2
I0
sg3
g4
sg5
S'flag8thDown'
p590
sg7
(lp591
I1928
aI3107
aI1954
aI3176
asg9
I0
sa(dp592
g2
I0
sg3
g4
sg5
S'noteheadBlack'
p593
sg7
(lp594
I2024
aI2946
aI2053
aI2971
asg9
I0
sa(dp595
g2
I0
sg3
g4
sg5
S'noteheadBlack'
p596
sg7
(lp597
I2024
aI3404
aI2053
aI3429
asg9
I0
sa(dp598
g2
I0
sg3
g4
sg5
S'noteheadHalf'
p599
sg7
(lp600
I2024
aI3610
aI2053
aI3635
asg9
I0
sa(dp601
g2
I0
sg3
g4
sg5
S'noteheadBlack'
p602
sg7
(lp603
I1504
aI2855
aI1533
aI2880
asg9
I0
sa(dp604
g2
I0
sg3
g4
sg5
S'noteheadBlack'
p605
sg7
(lp606
I1571
aI2866
aI1600
aI2891
asg9
I0
sa(dp607
g2
I0
sg3
g4
sg5
S'noteheadBlack'
p608
sg7
(lp609
I1571
aI3061
aI1600
aI3086
asg9
I0
sa(dp610
g2
I0
sg3
g4
sg5
S'noteheadBlack'
p611
sg7
(lp612
I1571
aI3324
aI1600
aI3349
asg9
I0
sa(dp613
g2
I0
sg3
g4
sg5
S'noteheadBlack'
p614
sg7
(lp615
I1701
aI2901
aI1730
aI2925
asg9
I0
sa(dp616
g2
I0
sg3
g4
sg5
S'noteheadBlack'
p617
sg7
(lp618
I1701
aI3073
aI1730
aI3097
asg9
I0
sa(dp619
g2
I0
sg3
g4
sg5
S'noteheadBlack'
p620
sg7
(lp621
I1701
aI3347
aI1730
aI3372
asg9
I0
sa(dp622
g2
I0
sg3
g4
sg5
S'noteheadHalf'
p623
sg7
(lp624
I1701
aI3610
aI1730
aI3635
asg9
I0
sa(dp625
g2
I0
sg3
g4
sg5
S'augmentationDot'
p626
sg7
(lp627
I1739
aI3069
aI1748
aI3078
asg9
I0
sa(dp628
g2
I0
sg3
g4
sg5
S'noteheadBlack'
p629
sg7
(lp630
I1637
aI2878
aI1666
aI2902
asg9
I0
sa(dp631
g2
I0
sg3
g4
sg5
S'noteheadBlack'
p632
sg7
(lp633
I2425
aI2866
aI2454
aI2891
asg9
I0
sa(dp634
g2
I0
sg3
g4
sg5
S'noteheadBlack'
p635
sg7
(lp636
I2425
aI3141
aI2454
aI3166
asg9
I0
sa(dp637
g2
I0
sg3
g4
sg5
S'noteheadBlack'
p638
sg7
(lp639
I2425
aI3324
aI2454
aI3349
asg9
I0
sa(dp640
g2
I0
sg3
g4
sg5
S'noteheadBlack'
p641
sg7
(lp642
I2359
aI3107
aI2388
aI3131
asg9
I0
sa(dp643
g2
I0
sg3
g4
sg5
S'noteheadBlack'
p644
sg7
(lp645
I2359
aI2901
aI2388
aI2925
asg9
I0
sa(dp646
g2
I0
sg3
g4
sg5
S'noteheadBlack'
p647
sg7
(lp648
I2504
aI2878
aI2533
aI2902
asg9
I0
sa(dp649
g2
I0
sg3
g4
sg5
S'noteheadBlack'
p650
sg7
(lp651
I2504
aI3130
aI2533
aI3154
asg9
I0
sa(dp652
g2
I0
sg3
g4
sg5
S'accidentalFlat'
p653
sg7
(lp654
I2478
aI2848
aI2496
aI2905
asg9
I0
sa(dp655
g2
I0
sg3
g4
sg5
S'noteheadBlack'
p656
sg7
(lp657
I2090
aI3118
aI2119
aI3143
asg9
I0
sa(dp658
g2
I0
sg3
g4
sg5
S'noteheadBlack'
p659
sg7
(lp660
I2090
aI2935
aI2119
aI2959
asg9
I0
sa(dp661
g2
I0
sg3
g4
sg5
S'noteheadBlack'
p662
sg7
(lp663
I2157
aI2923
aI2186
aI2948
asg9
I0
sa(dp664
g2
I0
sg3
g4
sg5
S'noteheadBlack'
p665
sg7
(lp666
I2157
aI3107
aI2186
aI3131
asg9
I0
sa(dp667
g2
I0
sg3
g4
sg5
S'noteheadBlack'
p668
sg7
(lp669
I2157
aI3427
aI2186
aI3452
asg9
I0
sa(dp670
g2
I0
sg3
g4
sg5
S'noteheadBlack'
p671
sg7
(lp672
I2292
aI2866
aI2321
aI2891
asg9
I0
sa(dp673
g2
I0
sg3
g4
sg5
S'noteheadBlack'
p674
sg7
(lp675
I2292
aI3164
aI2321
aI3188
asg9
I0
sa(dp676
g2
I0
sg3
g4
sg5
S'noteheadBlack'
p677
sg7
(lp678
I2292
aI3381
aI2321
aI3406
asg9
I0
sa(dp679
g2
I0
sg3
g4
sg5
S'noteheadHalf'
p680
sg7
(lp681
I2292
aI3610
aI2321
aI3635
asg9
I0
sa(dp682
g2
I0
sg3
g4
sg5
S'noteheadBlack'
p683
sg7
(lp684
I2220
aI2912
aI2249
aI2937
asg9
I0
sa(dp685
g2
I0
sg3
g4
sg5
S'noteheadBlack'
p686
sg7
(lp687
I2220
aI3187
aI2249
aI3211
asg9
I0
sa(dp688
g2
I0
sg3
g4
sg5
S'noteheadBlack'
p689
sg7
(lp690
I545
aI3347
aI574
aI3372
asg9
I0
sa(dp691
g2
I0
sg3
g4
sg5
S'noteheadHalf'
p692
sg7
(lp693
I545
aI3610
aI574
aI3635
asg9
I0
sa(dp694
g2
I0
sg3
g4
sg5
S'noteheadBlack'
p695
sg7
(lp696
I545
aI3015
aI574
aI3040
asg9
I0
sa(dp697
g2
I0
sg3
g4
sg5
S'accidentalFlat'
p698
sg7
(lp699
I380
aI3375
aI399
aI3432
asg9
I0
sa(dp700
g2
I0
sg3
g4
sg5
S'noteheadBlack'
p701
sg7
(lp702
I473
aI2866
aI502
aI2891
asg9
I0
sa(dp703
g2
I0
sg3
g4
sg5
S'noteheadBlack'
p704
sg7
(lp705
I545
aI2821
aI574
aI2845
asg9
I0
sa(dp706
g2
I0
sg3
g4
sg5
S'noteheadBlack'
p707
sg7
(lp708
I771
aI2752
aI800
aI2777
asg9
I0
sa(dp709
g2
I0
sg3
g4
sg5
S'noteheadBlack'
p710
sg7
(lp711
I699
aI2775
aI728
aI2800
asg9
I0
sa(dp712
g2
I0
sg3
g4
sg5
S'noteheadBlack'
p713
sg7
(lp714
I617
aI2786
aI646
aI2811
asg9
I0
sa(dp715
g2
I0
sg3
g4
sg5
S'noteheadBlack'
p716
sg7
(lp717
I699
aI3095
aI728
aI3120
asg9
I0
sa(dp718
g2
I0
sg3
g4
sg5
S'noteheadBlack'
p719
sg7
(lp720
I699
aI3370
aI728
aI3395
asg9
I0
sa(dp721
g2
I0
sg3
g4
sg5
S'gClef'
p722
sg7
(lp723
I147
aI3055
aI204
aI3211
asg9
I0
sa(dp724
g2
I0
sg3
g4
sg5
S'gClef'
p725
sg7
(lp726
I147
aI3295
aI204
aI3451
asg9
I0
sa(dp727
g2
I0
sg3
g4
sg5
S'fClef'
p728
sg7
(lp729
I147
aI3565
aI208
aI3638
asg9
I0
sa(dp730
g2
I0
sg3
g4
sg5
S'noteheadBlack'
p731
sg7
(lp732
I261
aI2923
aI290
aI2948
asg9
I0
sa(dp733
g2
I0
sg3
g4
sg5
S'noteheadBlack'
p734
sg7
(lp735
I261
aI3084
aI290
aI3109
asg9
I0
sa(dp736
g2
I0
sg3
g4
sg5
S'noteheadBlack'
p737
sg7
(lp738
I261
aI3381
aI290
aI3406
asg9
I0
sa(dp739
g2
I0
sg3
g4
sg5
S'gClef'
p740
sg7
(lp741
I147
aI2814
aI204
aI2971
asg9
I0
sa(dp742
g2
I0
sg3
g4
sg5
S'noteheadBlack'
p743
sg7
(lp744
I340
aI2844
aI369
aI2868
asg9
I0
sa(dp745
g2
I0
sg3
g4
sg5
S'accidentalFlat'
p746
sg7
(lp747
I314
aI2814
aI332
aI2871
asg9
I0
sa(dp748
g2
I0
sg3
g4
sg5
S'noteheadBlack'
p749
sg7
(lp750
I407
aI2855
aI435
aI2880
asg9
I0
sa(dp751
g2
I0
sg3
g4
sg5
S'noteheadBlack'
p752
sg7
(lp753
I407
aI3061
aI435
aI3086
asg9
I0
sa(dp754
g2
I0
sg3
g4
sg5
S'noteheadBlack'
p755
sg7
(lp756
I407
aI3404
aI435
aI3429
asg9
I0
sa(dp757
g2
I0
sg3
g4
sg5
S'noteheadHalf'
p758
sg7
(lp759
I261
aI3610
aI290
aI3635
asg9
I0
sa(dp760
g2
I0
sg3
g4
sg5
S'accidentalFlat'
p761
sg7
(lp762
I235
aI2894
aI253
aI2951
asg9
I0
sa(dp763
g2
I0
sg3
g4
sg5
S'accidentalFlat'
p764
sg7
(lp765
I235
aI3055
aI253
aI3111
asg9
I0
sa(dp766
g2
I0
sg3
g4
sg5
S'noteheadBlack'
p767
sg7
(lp768
I1209
aI2775
aI1238
aI2800
asg9
I0
sa(dp769
g2
I0
sg3
g4
sg5
S'noteheadBlack'
p770
sg7
(lp771
I1071
aI2786
aI1100
aI2811
asg9
I0
sa(dp772
g2
I0
sg3
g4
sg5
S'noteheadBlack'
p773
sg7
(lp774
I1143
aI2764
aI1172
aI2788
asg9
I0
sa(dp775
g2
I0
sg3
g4
sg5
S'noteheadBlack'
p776
sg7
(lp777
I1143
aI3061
aI1172
aI3086
asg9
I0
sa(dp778
g2
I0
sg3
g4
sg5
S'noteheadBlack'
p779
sg7
(lp780
I1143
aI3347
aI1172
aI3372
asg9
I0
sa(dp781
g2
I0
sg3
g4
sg5
S'noteheadHalf'
p782
sg7
(lp783
I1143
aI3610
aI1172
aI3635
asg9
I0
sa(dp784
g2
I0
sg3
g4
sg5
S'noteheadBlack'
p785
sg7
(lp786
I1438
aI2844
aI1467
aI2868
asg9
I0
sa(dp787
g2
I0
sg3
g4
sg5
S'noteheadBlack'
p788
sg7
(lp789
I1438
aI3141
aI1467
aI3166
asg9
I0
sa(dp790
g2
I0
sg3
g4
sg5
S'noteheadBlack'
p791
sg7
(lp792
I1438
aI3347
aI1467
aI3372
asg9
I0
sa(dp793
g2
I0
sg3
g4
sg5
S'noteheadHalf'
p794
sg7
(lp795
I1438
aI3610
aI1467
aI3635
asg9
I0
sa(dp796
g2
I0
sg3
g4
sg5
S'noteheadBlack'
p797
sg7
(lp798
I1276
aI2786
aI1304
aI2811
asg9
I0
sa(dp799
g2
I0
sg3
g4
sg5
S'noteheadBlack'
p800
sg7
(lp801
I1276
aI3084
aI1304
aI3109
asg9
I0
sa(dp802
g2
I0
sg3
g4
sg5
S'noteheadBlack'
p803
sg7
(lp804
I1276
aI3302
aI1304
aI3326
asg9
I0
sa(dp805
g2
I0
sg3
g4
sg5
S'noteheadBlack'
p806
sg7
(lp807
I1342
aI2798
aI1371
aI2822
asg9
I0
sa(dp808
g2
I0
sg3
g4
sg5
S'noteheadBlack'
p809
sg7
(lp810
I866
aI2786
aI895
aI2811
asg9
I0
sa(dp811
g2
I0
sg3
g4
sg5
S'noteheadBlack'
p812
sg7
(lp813
I866
aI3084
aI895
aI3109
asg9
I0
sa(dp814
g2
I0
sg3
g4
sg5
S'noteheadBlack'
p815
sg7
(lp816
I866
aI3381
aI895
aI3406
asg9
I0
sa(dp817
g2
I0
sg3
g4
sg5
S'noteheadHalf'
p818
sg7
(lp819
I866
aI3610
aI895
aI3635
asg9
I0
sa(dp820
g2
I0
sg3
g4
sg5
S'noteheadBlack'
p821
sg7
(lp822
I999
aI2809
aI1028
aI2834
asg9
I0
sa(dp823
g2
I0
sg3
g4
sg5
S'noteheadBlack'
p824
sg7
(lp825
I932
aI2798
aI961
aI2822
asg9
I0
sa(dp826
g2
I0
sg3
g4
sg5
S'noteheadBlack'
p827
sg7
(lp828
I999
aI3107
aI1028
aI3131
asg9
I0
sa(dp829
g2
I0
sg3
g4
sg5
S'noteheadBlack'
p830
sg7
(lp831
I999
aI3404
aI1028
aI3429
asg9
I0
sa.