(lp0
(dp1
S'difficult'
p2
I0
sS'pose'
p3
S'Unspecified'
p4
sS'name'
p5
S'noteheadBlack'
p6
sS'bbox'
p7
(lp8
I1565
aI985
aI1586
aI1006
asS'truncated'
p9
I0
sa(dp10
g2
I0
sg3
g4
sg5
S'dynamicMP'
p11
sg7
(lp12
I1550
aI817
aI1601
aI845
asg9
I0
sa(dp13
g2
I0
sg3
g4
sg5
S'noteheadBlack'
p14
sg7
(lp15
I1684
aI263
aI1706
aI284
asg9
I0
sa(dp16
g2
I0
sg3
g4
sg5
S'dynamicMF'
p17
sg7
(lp18
I1672
aI348
aI1721
aI381
asg9
I0
sa(dp19
g2
I0
sg3
g4
sg5
S'noteheadBlack'
p20
sg7
(lp21
I1684
aI674
aI1706
aI695
asg9
I0
sa(dp22
g2
I0
sg3
g4
sg5
S'dynamicMF'
p23
sg7
(lp24
I1672
aI814
aI1721
aI847
asg9
I0
sa(dp25
g2
I0
sg3
g4
sg5
S'noteheadBlack'
p26
sg7
(lp27
I1684
aI1481
aI1706
aI1502
asg9
I0
sa(dp28
g2
I0
sg3
g4
sg5
S'dynamicPiano'
p29
sg7
(lp30
I1681
aI1526
aI1704
aI1554
asg9
I0
sa(dp31
g2
I0
sg3
g4
sg5
S'noteheadBlack'
p32
sg7
(lp33
I1565
aI727
aI1586
aI748
asg9
I0
sa(dp34
g2
I0
sg3
g4
sg5
S'rest8th'
p35
sg7
(lp36
I1565
aI1453
aI1585
aI1489
asg9
I0
sa(dp37
g2
I0
sg3
g4
sg5
S'ornamentTurn'
p38
sg7
(lp39
I1555
aI930
aI1596
aI949
asg9
I0
sa(dp40
g2
I0
sg3
g4
sg5
S'dynamicMP'
p41
sg7
(lp42
I1550
aI1078
aI1601
aI1106
asg9
I0
sa(dp43
g2
I0
sg3
g4
sg5
S'dynamicMP'
p44
sg7
(lp45
I1786
aI1553
aI1837
aI1581
asg9
I0
sa(dp46
g2
I0
sg3
g4
sg5
S'noteheadBlack'
p47
sg7
(lp48
I1801
aI1460
aI1822
aI1481
asg9
I0
sa(dp49
g2
I0
sg3
g4
sg5
S'noteheadHalf'
p50
sg7
(lp51
I1324
aI447
aI1355
aI469
asg9
I0
sa(dp52
g2
I0
sg3
g4
sg5
S'noteheadBlack'
p53
sg7
(lp54
I1801
aI315
aI1822
aI336
asg9
I0
sa(dp55
g2
I0
sg3
g4
sg5
S'flag8thUp'
p56
sg7
(lp57
I1704
aI1419
aI1722
aI1443
asg9
I0
sa(dp58
g2
I0
sg3
g4
sg5
S'dynamicMP'
p59
sg7
(lp60
I1786
aI349
aI1837
aI377
asg9
I0
sa(dp61
g2
I0
sg3
g4
sg5
S'noteheadHalf'
p62
sg7
(lp63
I1801
aI520
aI1832
aI542
asg9
I0
sa(dp64
g2
I0
sg3
g4
sg5
S'noteheadHalf'
p65
sg7
(lp66
I1801
aI499
aI1832
aI521
asg9
I0
sa(dp67
g2
I0
sg3
g4
sg5
S'noteheadHalf'
p68
sg7
(lp69
I1801
aI478
aI1832
aI500
asg9
I0
sa(dp70
g2
I0
sg3
g4
sg5
S'noteheadBlack'
p71
sg7
(lp72
I1801
aI695
aI1822
aI716
asg9
I0
sa(dp73
g2
I0
sg3
g4
sg5
S'dynamicMP'
p74
sg7
(lp75
I1786
aI813
aI1837
aI841
asg9
I0
sa(dp76
g2
I0
sg3
g4
sg5
S'noteheadBlack'
p77
sg7
(lp78
I1801
aI1006
aI1822
aI1027
asg9
I0
sa(dp79
g2
I0
sg3
g4
sg5
S'dynamicMF'
p80
sg7
(lp81
I1788
aI1052
aI1837
aI1085
asg9
I0
sa(dp82
g2
I0
sg3
g4
sg5
S'ornamentTurn'
p83
sg7
(lp84
I1791
aI921
aI1832
aI939
asg9
I0
sa(dp85
g2
I0
sg3
g4
sg5
S'noteheadBlack'
p86
sg7
(lp87
I1324
aI727
aI1345
aI748
asg9
I0
sa(dp88
g2
I0
sg3
g4
sg5
S'dynamicMP'
p89
sg7
(lp90
I1310
aI817
aI1360
aI845
asg9
I0
sa(dp91
g2
I0
sg3
g4
sg5
S'noteheadBlack'
p92
sg7
(lp93
I1324
aI1037
aI1345
aI1058
asg9
I0
sa(dp94
g2
I0
sg3
g4
sg5
S'dynamicMF'
p95
sg7
(lp96
I1311
aI1065
aI1361
aI1098
asg9
I0
sa(dp97
g2
I0
sg3
g4
sg5
S'ornamentTurn'
p98
sg7
(lp99
I1314
aI930
aI1355
aI949
asg9
I0
sa(dp100
g2
I0
sg3
g4
sg5
S'noteheadWhole'
p101
sg7
(lp102
I1324
aI1191
aI1365
aI1212
asg9
I0
sa(dp103
g2
I0
sg3
g4
sg5
S'noteheadBlack'
p104
sg7
(lp105
I1324
aI1502
aI1345
aI1523
asg9
I0
sa(dp106
g2
I0
sg3
g4
sg5
S'dynamicMP'
p107
sg7
(lp108
I1310
aI1535
aI1360
aI1563
asg9
I0
sa(dp109
g2
I0
sg3
g4
sg5
S'noteheadBlack'
p110
sg7
(lp111
I1444
aI263
aI1466
aI284
asg9
I0
sa(dp112
g2
I0
sg3
g4
sg5
S'dynamicMF'
p113
sg7
(lp114
I1431
aI352
aI1481
aI385
asg9
I0
sa(dp115
g2
I0
sg3
g4
sg5
S'noteheadBlack'
p116
sg7
(lp117
I1444
aI695
aI1466
aI716
asg9
I0
sa(dp118
g2
I0
sg3
g4
sg5
S'dynamicMF'
p119
sg7
(lp120
I1431
aI815
aI1481
aI848
asg9
I0
sa(dp121
g2
I0
sg3
g4
sg5
S'noteheadBlack'
p122
sg7
(lp123
I1565
aI242
aI1586
aI263
asg9
I0
sa(dp124
g2
I0
sg3
g4
sg5
S'dynamicForte'
p125
sg7
(lp126
I1562
aI352
aI1585
aI385
asg9
I0
sa(dp127
g2
I0
sg3
g4
sg5
S'flag8thDown'
p128
sg7
(lp129
I2241
aI1487
aI2260
aI1512
asg9
I0
sa(dp130
g2
I0
sg3
g4
sg5
S'noteheadBlack'
p131
sg7
(lp132
I2021
aI716
aI2042
aI737
asg9
I0
sa(dp133
g2
I0
sg3
g4
sg5
S'noteheadBlack'
p134
sg7
(lp135
I2021
aI263
aI2042
aI284
asg9
I0
sa(dp136
g2
I0
sg3
g4
sg5
S'noteheadBlack'
p137
sg7
(lp138
I2093
aI242
aI2114
aI263
asg9
I0
sa(dp139
g2
I0
sg3
g4
sg5
S'noteheadBlack'
p140
sg7
(lp141
I2093
aI727
aI2114
aI748
asg9
I0
sa(dp142
g2
I0
sg3
g4
sg5
S'dynamicMF'
p143
sg7
(lp144
I2080
aI826
aI2130
aI859
asg9
I0
sa(dp145
g2
I0
sg3
g4
sg5
S'noteheadBlack'
p146
sg7
(lp147
I2093
aI933
aI2114
aI954
asg9
I0
sa(dp148
g2
I0
sg3
g4
sg5
S'dynamicForte'
p149
sg7
(lp150
I2090
aI1052
aI2113
aI1085
asg9
I0
sa(dp151
g2
I0
sg3
g4
sg5
S'ornamentTurn'
p152
sg7
(lp153
I2083
aI910
aI2124
aI929
asg9
I0
sa(dp154
g2
I0
sg3
g4
sg5
S'rest8th'
p155
sg7
(lp156
I2093
aI1453
aI2113
aI1489
asg9
I0
sa(dp157
g2
I0
sg3
g4
sg5
S'noteheadBlack'
p158
sg7
(lp159
I1877
aI295
aI1898
aI315
asg9
I0
sa(dp160
g2
I0
sg3
g4
sg5
S'noteheadBlack'
p161
sg7
(lp162
I1948
aI284
aI1969
aI305
asg9
I0
sa(dp163
g2
I0
sg3
g4
sg5
S'noteheadBlack'
p164
sg7
(lp165
I1948
aI706
aI1969
aI727
asg9
I0
sa(dp166
g2
I0
sg3
g4
sg5
S'noteheadBlack'
p167
sg7
(lp168
I2240
aI211
aI2261
aI232
asg9
I0
sa(dp169
g2
I0
sg3
g4
sg5
S'dynamicForte'
p170
sg7
(lp171
I2237
aI330
aI2260
aI363
asg9
I0
sa(dp172
g2
I0
sg3
g4
sg5
S'noteheadBlack'
p173
sg7
(lp174
I2240
aI768
aI2261
aI789
asg9
I0
sa(dp175
g2
I0
sg3
g4
sg5
S'noteheadBlack'
p176
sg7
(lp177
I2240
aI1429
aI2261
aI1450
asg9
I0
sa(dp178
g2
I0
sg3
g4
sg5
S'dynamicPiano'
p179
sg7
(lp180
I2236
aI1526
aI2259
aI1554
asg9
I0
sa(dp181
g2
I0
sg3
g4
sg5
S'noteheadBlack'
p182
sg7
(lp183
I2169
aI221
aI2190
aI242
asg9
I0
sa(dp184
g2
I0
sg3
g4
sg5
S'noteheadBlack'
p185
sg7
(lp186
I429
aI716
aI450
aI737
asg9
I0
sa(dp187
g2
I0
sg3
g4
sg5
S'noteheadBlack'
p188
sg7
(lp189
I429
aI975
aI450
aI996
asg9
I0
sa(dp190
g2
I0
sg3
g4
sg5
S'dynamicMF'
p191
sg7
(lp192
I345
aI330
aI395
aI363
asg9
I0
sa(dp193
g2
I0
sg3
g4
sg5
S'noteheadBlack'
p194
sg7
(lp195
I358
aI211
aI379
aI232
asg9
I0
sa(dp196
g2
I0
sg3
g4
sg5
S'noteheadBlack'
p197
sg7
(lp198
I505
aI232
aI526
aI253
asg9
I0
sa(dp199
g2
I0
sg3
g4
sg5
S'noteheadBlack'
p200
sg7
(lp201
I358
aI706
aI379
aI727
asg9
I0
sa(dp202
g2
I0
sg3
g4
sg5
S'noteheadBlack'
p203
sg7
(lp204
I358
aI964
aI379
aI985
asg9
I0
sa(dp205
g2
I0
sg3
g4
sg5
S'dynamicMP'
p206
sg7
(lp207
I344
aI1067
aI394
aI1095
asg9
I0
sa(dp208
g2
I0
sg3
g4
sg5
S'noteheadBlack'
p209
sg7
(lp210
I623
aI253
aI645
aI274
asg9
I0
sa(dp211
g2
I0
sg3
g4
sg5
S'noteheadBlack'
p212
sg7
(lp213
I623
aI706
aI645
aI727
asg9
I0
sa(dp214
g2
I0
sg3
g4
sg5
S'noteheadBlack'
p215
sg7
(lp216
I623
aI964
aI645
aI985
asg9
I0
sa(dp217
g2
I0
sg3
g4
sg5
S'dynamicPiano'
p218
sg7
(lp219
I620
aI1066
aI643
aI1094
asg9
I0
sa(dp220
g2
I0
sg3
g4
sg5
S'noteheadBlack'
p221
sg7
(lp222
I623
aI1502
aI645
aI1523
asg9
I0
sa(dp223
g2
I0
sg3
g4
sg5
S'dynamicPiano'
p224
sg7
(lp225
I620
aI1535
aI643
aI1563
asg9
I0
sa(dp226
g2
I0
sg3
g4
sg5
S'noteheadHalf'
p227
sg7
(lp228
I1324
aI478
aI1355
aI500
asg9
I0
sa(dp229
g2
I0
sg3
g4
sg5
S'noteheadBlack'
p230
sg7
(lp231
I505
aI695
aI526
aI716
asg9
I0
sa(dp232
g2
I0
sg3
g4
sg5
S'noteheadBlack'
p233
sg7
(lp234
I505
aI954
aI526
aI975
asg9
I0
sa(dp235
g2
I0
sg3
g4
sg5
S'rest8th'
p236
sg7
(lp237
I505
aI1453
aI525
aI1489
asg9
I0
sa(dp238
g2
I0
sg3
g4
sg5
S'gClef'
p239
sg7
(lp240
I135
aI213
aI189
aI339
asg9
I0
sa(dp241
g2
I0
sg3
g4
sg5
S'fClef'
p242
sg7
(lp243
I135
aI451
aI189
aI505
asg9
I0
sa(dp244
g2
I0
sg3
g4
sg5
S'gClef'
p245
sg7
(lp246
I135
aI698
aI189
aI823
asg9
I0
sa(dp247
g2
I0
sg3
g4
sg5
S'gClef'
p248
sg7
(lp249
I135
aI935
aI189
aI1060
asg9
I0
sa(dp250
g2
I0
sg3
g4
sg5
S'fClef'
p251
sg7
(lp252
I135
aI1194
aI189
aI1249
asg9
I0
sa(dp253
g2
I0
sg3
g4
sg5
S'brace'
p254
sg7
(lp255
I89
aI232
aI111
aI531
asg9
I0
sa(dp256
g2
I0
sg3
g4
sg5
S'noteheadBlack'
p257
sg7
(lp258
I239
aI1470
aI261
aI1491
asg9
I0
sa(dp259
g2
I0
sg3
g4
sg5
S'dynamicMP'
p260
sg7
(lp261
I225
aI1526
aI275
aI1554
asg9
I0
sa(dp262
g2
I0
sg3
g4
sg5
S'noteheadWhole'
p263
sg7
(lp264
I239
aI1160
aI281
aI1181
asg9
I0
sa(dp265
g2
I0
sg3
g4
sg5
S'fClef'
p266
sg7
(lp267
I135
aI1432
aI189
aI1487
asg9
I0
sa(dp268
g2
I0
sg3
g4
sg5
S'clef8'
p269
sg7
(lp270
I145
aI1518
aI174
aI1539
asg9
I0
sa(dp271
g2
I0
sg3
g4
sg5
S'noteheadBlack'
p272
sg7
(lp273
I239
aI180
aI261
aI201
asg9
I0
sa(dp274
g2
I0
sg3
g4
sg5
S'dynamicForte'
p275
sg7
(lp276
I237
aI330
aI260
aI363
asg9
I0
sa(dp277
g2
I0
sg3
g4
sg5
S'noteheadHalf'
p278
sg7
(lp279
I239
aI520
aI271
aI542
asg9
I0
sa(dp280
g2
I0
sg3
g4
sg5
S'noteheadHalf'
p281
sg7
(lp282
I239
aI489
aI271
aI511
asg9
I0
sa(dp283
g2
I0
sg3
g4
sg5
S'noteheadHalf'
p284
sg7
(lp285
I239
aI468
aI271
aI490
asg9
I0
sa(dp286
g2
I0
sg3
g4
sg5
S'noteheadBlack'
p287
sg7
(lp288
I239
aI695
aI261
aI716
asg9
I0
sa(dp289
g2
I0
sg3
g4
sg5
S'dynamicMF'
p290
sg7
(lp291
I226
aI814
aI276
aI847
asg9
I0
sa(dp292
g2
I0
sg3
g4
sg5
S'noteheadBlack'
p293
sg7
(lp294
I239
aI954
aI261
aI975
asg9
I0
sa(dp295
g2
I0
sg3
g4
sg5
S'dynamicMF'
p296
sg7
(lp297
I226
aI1059
aI276
aI1092
asg9
I0
sa(dp298
g2
I0
sg3
g4
sg5
S'dynamicMP'
p299
sg7
(lp300
I1039
aI822
aI1090
aI850
asg9
I0
sa(dp301
g2
I0
sg3
g4
sg5
S'noteheadBlack'
p302
sg7
(lp303
I1054
aI253
aI1075
aI274
asg9
I0
sa(dp304
g2
I0
sg3
g4
sg5
S'noteheadBlack'
p305
sg7
(lp306
I1054
aI716
aI1075
aI737
asg9
I0
sa(dp307
g2
I0
sg3
g4
sg5
S'noteheadBlack'
p308
sg7
(lp309
I1054
aI975
aI1075
aI996
asg9
I0
sa(dp310
g2
I0
sg3
g4
sg5
S'dynamicMP'
p311
sg7
(lp312
I1039
aI1059
aI1090
aI1087
asg9
I0
sa(dp313
g2
I0
sg3
g4
sg5
S'rest8th'
p314
sg7
(lp315
I1054
aI1453
aI1074
aI1489
asg9
I0
sa(dp316
g2
I0
sg3
g4
sg5
S'noteheadBlack'
p317
sg7
(lp318
I912
aI695
aI933
aI716
asg9
I0
sa(dp319
g2
I0
sg3
g4
sg5
S'noteheadBlack'
p320
sg7
(lp321
I912
aI954
aI933
aI975
asg9
I0
sa(dp322
g2
I0
sg3
g4
sg5
S'noteheadBlack'
p323
sg7
(lp324
I983
aI706
aI1004
aI727
asg9
I0
sa(dp325
g2
I0
sg3
g4
sg5
S'noteheadBlack'
p326
sg7
(lp327
I983
aI964
aI1004
aI985
asg9
I0
sa(dp328
g2
I0
sg3
g4
sg5
S'flag8thUp'
p329
sg7
(lp330
I1190
aI1439
aI1207
aI1464
asg9
I0
sa(dp331
g2
I0
sg3
g4
sg5
S'noteheadBlack'
p332
sg7
(lp333
I1324
aI242
aI1345
aI263
asg9
I0
sa(dp334
g2
I0
sg3
g4
sg5
S'dynamicForte'
p335
sg7
(lp336
I1321
aI352
aI1344
aI385
asg9
I0
sa(dp337
g2
I0
sg3
g4
sg5
S'noteheadHalf'
p338
sg7
(lp339
I1324
aI499
aI1355
aI521
asg9
I0
sa(dp340
g2
I0
sg3
g4
sg5
S'noteheadBlack'
p341
sg7
(lp342
I1170
aI284
aI1191
aI305
asg9
I0
sa(dp343
g2
I0
sg3
g4
sg5
S'noteheadBlack'
p344
sg7
(lp345
I1170
aI737
aI1191
aI758
asg9
I0
sa(dp346
g2
I0
sg3
g4
sg5
S'noteheadBlack'
p347
sg7
(lp348
I1170
aI996
aI1191
aI1016
asg9
I0
sa(dp349
g2
I0
sg3
g4
sg5
S'noteheadBlack'
p350
sg7
(lp351
I1170
aI1502
aI1191
aI1523
asg9
I0
sa(dp352
g2
I0
sg3
g4
sg5
S'dynamicPiano'
p353
sg7
(lp354
I1166
aI1535
aI1189
aI1563
asg9
I0
sa(dp355
g2
I0
sg3
g4
sg5
S'dynamicMP'
p356
sg7
(lp357
I756
aI1526
aI806
aI1554
asg9
I0
sa(dp358
g2
I0
sg3
g4
sg5
S'noteheadBlack'
p359
sg7
(lp360
I770
aI211
aI792
aI232
asg9
I0
sa(dp361
g2
I0
sg3
g4
sg5
S'dynamicForte'
p362
sg7
(lp363
I767
aI330
aI791
aI363
asg9
I0
sa(dp364
g2
I0
sg3
g4
sg5
S'noteheadHalf'
p365
sg7
(lp366
I770
aI489
aI802
aI511
asg9
I0
sa(dp367
g2
I0
sg3
g4
sg5
S'noteheadHalf'
p368
sg7
(lp369
I770
aI468
aI802
aI490
asg9
I0
sa(dp370
g2
I0
sg3
g4
sg5
S'noteheadHalf'
p371
sg7
(lp372
I770
aI447
aI802
aI469
asg9
I0
sa(dp373
g2
I0
sg3
g4
sg5
S'noteheadBlack'
p374
sg7
(lp375
I770
aI695
aI792
aI716
asg9
I0
sa(dp376
g2
I0
sg3
g4
sg5
S'noteheadBlack'
p377
sg7
(lp378
I770
aI954
aI792
aI975
asg9
I0
sa(dp379
g2
I0
sg3
g4
sg5
S'dynamicMP'
p380
sg7
(lp381
I756
aI1055
aI806
aI1083
asg9
I0
sa(dp382
g2
I0
sg3
g4
sg5
S'noteheadBlack'
p383
sg7
(lp384
I770
aI1470
aI792
aI1491
asg9
I0
sa(dp385
g2
I0
sg3
g4
sg5
S'flag8thUp'
p386
sg7
(lp387
I643
aI1439
aI661
aI1464
asg9
I0
sa(dp388
g2
I0
sg3
g4
sg5
S'noteheadBlack'
p389
sg7
(lp390
I694
aI716
aI716
aI737
asg9
I0
sa(dp391
g2
I0
sg3
g4
sg5
S'noteheadBlack'
p392
sg7
(lp393
I694
aI975
aI716
aI996
asg9
I0
sa(dp394
g2
I0
sg3
g4
sg5
S'noteheadBlack'
p395
sg7
(lp396
I836
aI716
aI857
aI737
asg9
I0
sa(dp397
g2
I0
sg3
g4
sg5
S'noteheadBlack'
p398
sg7
(lp399
I836
aI975
aI857
aI996
asg9
I0
sa(dp400
g2
I0
sg3
g4
sg5
S'dynamicPiano'
p401
sg7
(lp402
I832
aI1054
aI856
aI1082
asg9
I0
sa(dp403
g2
I0
sg3
g4
sg5
S'noteheadBlack'
p404
sg7
(lp405
I912
aI232
aI933
aI253
asg9
I0
sa(dp406
g2
I0
sg3
g4
sg5
S'dynamicMF'
p407
sg7
(lp408
I899
aI346
aI949
aI378
asg9
I0
sa(dp409
g2
I0
sg3
g4
sg5
S'noteheadBlack'
p410
sg7
(lp411
I1706
aI2472
aI1728
aI2493
asg9
I0
sa(dp412
g2
I0
sg3
g4
sg5
S'dynamicMF'
p413
sg7
(lp414
I1554
aI2591
aI1603
aI2624
asg9
I0
sa(dp415
g2
I0
sg3
g4
sg5
S'noteheadBlack'
p416
sg7
(lp417
I1567
aI2462
aI1588
aI2483
asg9
I0
sa(dp418
g2
I0
sg3
g4
sg5
S'noteheadBlack'
p419
sg7
(lp420
I1567
aI2030
aI1588
aI2051
asg9
I0
sa(dp421
g2
I0
sg3
g4
sg5
S'ornamentTurnInverted'
p422
sg7
(lp423
I1831
aI2706
aI1873
aI2725
asg9
I0
sa(dp424
g2
I0
sg3
g4
sg5
S'rest8th'
p425
sg7
(lp426
I1841
aI3230
aI1861
aI3266
asg9
I0
sa(dp427
g2
I0
sg3
g4
sg5
S'noteheadBlack'
p428
sg7
(lp429
I1841
aI3031
aI1863
aI3052
asg9
I0
sa(dp430
g2
I0
sg3
g4
sg5
S'dynamicMP'
p431
sg7
(lp432
I1692
aI2591
aI1742
aI2618
asg9
I0
sa(dp433
g2
I0
sg3
g4
sg5
S'noteheadBlack'
p434
sg7
(lp435
I1841
aI2752
aI1863
aI2773
asg9
I0
sa(dp436
g2
I0
sg3
g4
sg5
S'dynamicMF'
p437
sg7
(lp438
I1828
aI2591
aI1878
aI2624
asg9
I0
sa(dp439
g2
I0
sg3
g4
sg5
S'noteheadBlack'
p440
sg7
(lp441
I1841
aI2493
aI1863
aI2514
asg9
I0
sa(dp442
g2
I0
sg3
g4
sg5
S'noteheadBlack'
p443
sg7
(lp444
I1841
aI2009
aI1863
aI2030
asg9
I0
sa(dp445
g2
I0
sg3
g4
sg5
S'noteheadBlack'
p446
sg7
(lp447
I1303
aI3248
aI1324
aI3268
asg9
I0
sa(dp448
g2
I0
sg3
g4
sg5
S'dynamicMP'
p449
sg7
(lp450
I1288
aI3303
aI1339
aI3331
asg9
I0
sa(dp451
g2
I0
sg3
g4
sg5
S'dynamicForte'
p452
sg7
(lp453
I1300
aI2128
aI1323
aI2161
asg9
I0
sa(dp454
g2
I0
sg3
g4
sg5
S'noteheadHalf'
p455
sg7
(lp456
I1303
aI2287
aI1334
aI2309
asg9
I0
sa(dp457
g2
I0
sg3
g4
sg5
S'noteheadBlack'
p458
sg7
(lp459
I1303
aI3010
aI1324
aI3031
asg9
I0
sa(dp460
g2
I0
sg3
g4
sg5
S'ornamentTurnInverted'
p461
sg7
(lp462
I1293
aI2706
aI1334
aI2725
asg9
I0
sa(dp463
g2
I0
sg3
g4
sg5
S'noteheadHalf'
p464
sg7
(lp465
I1303
aI2266
aI1334
aI2288
asg9
I0
sa(dp466
g2
I0
sg3
g4
sg5
S'noteheadBlack'
p467
sg7
(lp468
I1303
aI2804
aI1324
aI2825
asg9
I0
sa(dp469
g2
I0
sg3
g4
sg5
S'dynamicMP'
p470
sg7
(lp471
I1288
aI2611
aI1339
aI2639
asg9
I0
sa(dp472
g2
I0
sg3
g4
sg5
S'noteheadHalf'
p473
sg7
(lp474
I1303
aI2245
aI1334
aI2267
asg9
I0
sa(dp475
g2
I0
sg3
g4
sg5
S'noteheadBlack'
p476
sg7
(lp477
I1303
aI2535
aI1324
aI2556
asg9
I0
sa(dp478
g2
I0
sg3
g4
sg5
S'noteheadBlack'
p479
sg7
(lp480
I1303
aI2051
aI1324
aI2072
asg9
I0
sa(dp481
g2
I0
sg3
g4
sg5
S'dynamicPiano'
p482
sg7
(lp483
I2098
aI3303
aI2122
aI3331
asg9
I0
sa(dp484
g2
I0
sg3
g4
sg5
S'noteheadBlack'
p485
sg7
(lp486
I2102
aI3268
aI2123
aI3289
asg9
I0
sa(dp487
g2
I0
sg3
g4
sg5
S'dynamicFFF'
p488
sg7
(lp489
I2083
aI2107
aI2138
aI2140
asg9
I0
sa(dp490
g2
I0
sg3
g4
sg5
S'noteheadBlack'
p491
sg7
(lp492
I2102
aI1978
aI2123
aI1998
asg9
I0
sa(dp493
g2
I0
sg3
g4
sg5
S'flag8thUp'
p494
sg7
(lp495
I2122
aI3206
aI2139
aI3230
asg9
I0
sa(dp496
g2
I0
sg3
g4
sg5
S'dynamicMF'
p497
sg7
(lp498
I226
aI2623
aI276
aI2656
asg9
I0
sa(dp499
g2
I0
sg3
g4
sg5
S'noteheadBlack'
p500
sg7
(lp501
I239
aI2535
aI261
aI2556
asg9
I0
sa(dp502
g2
I0
sg3
g4
sg5
S'noteheadHalf'
p503
sg7
(lp504
I239
aI2245
aI271
aI2267
asg9
I0
sa(dp505
g2
I0
sg3
g4
sg5
S'noteheadHalf'
p506
sg7
(lp507
I239
aI2266
aI271
aI2288
asg9
I0
sa(dp508
g2
I0
sg3
g4
sg5
S'noteheadHalf'
p509
sg7
(lp510
I239
aI2287
aI271
aI2309
asg9
I0
sa(dp511
g2
I0
sg3
g4
sg5
S'dynamicForte'
p512
sg7
(lp513
I237
aI2124
aI260
aI2157
asg9
I0
sa(dp514
g2
I0
sg3
g4
sg5
S'noteheadBlack'
p515
sg7
(lp516
I239
aI2051
aI261
aI2072
asg9
I0
sa(dp517
g2
I0
sg3
g4
sg5
S'noteheadBlack'
p518
sg7
(lp519
I239
aI2804
aI261
aI2825
asg9
I0
sa(dp520
g2
I0
sg3
g4
sg5
S'clef8'
p521
sg7
(lp522
I145
aI3295
aI174
aI3316
asg9
I0
sa(dp523
g2
I0
sg3
g4
sg5
S'fClef'
p524
sg7
(lp525
I135
aI3209
aI189
aI3264
asg9
I0
sa(dp526
g2
I0
sg3
g4
sg5
S'flag8thUp'
p527
sg7
(lp528
I1067
aI3206
aI1084
aI3230
asg9
I0
sa(dp529
g2
I0
sg3
g4
sg5
S'dynamicMP'
p530
sg7
(lp531
I225
aI3303
aI275
aI3331
asg9
I0
sa(dp532
g2
I0
sg3
g4
sg5
S'noteheadBlack'
p533
sg7
(lp534
I239
aI3248
aI261
aI3268
asg9
I0
sa(dp535
g2
I0
sg3
g4
sg5
S'noteheadBlack'
p536
sg7
(lp537
I239
aI2958
aI261
aI2979
asg9
I0
sa(dp538
g2
I0
sg3
g4
sg5
S'ornamentTurnInverted'
p539
sg7
(lp540
I229
aI2706
aI271
aI2725
asg9
I0
sa(dp541
g2
I0
sg3
g4
sg5
S'dynamicMP'
p542
sg7
(lp543
I225
aI2837
aI275
aI2865
asg9
I0
sa(dp544
g2
I0
sg3
g4
sg5
S'brace'
p545
sg7
(lp546
I89
aI2009
aI111
aI2308
asg9
I0
sa(dp547
g2
I0
sg3
g4
sg5
S'fClef'
p548
sg7
(lp549
I135
aI2972
aI189
aI3026
asg9
I0
sa(dp550
g2
I0
sg3
g4
sg5
S'gClef'
p551
sg7
(lp552
I135
aI2712
aI189
aI2838
asg9
I0
sa(dp553
g2
I0
sg3
g4
sg5
S'gClef'
p554
sg7
(lp555
I135
aI2475
aI189
aI2600
asg9
I0
sa(dp556
g2
I0
sg3
g4
sg5
S'fClef'
p557
sg7
(lp558
I135
aI2228
aI189
aI2282
asg9
I0
sa(dp559
g2
I0
sg3
g4
sg5
S'gClef'
p560
sg7
(lp561
I135
aI1990
aI189
aI2116
asg9
I0
sa(dp562
g2
I0
sg3
g4
sg5
S'rest8th'
p563
sg7
(lp564
I786
aI3230
aI806
aI3266
asg9
I0
sa(dp565
g2
I0
sg3
g4
sg5
S'noteheadBlack'
p566
sg7
(lp567
I786
aI2989
aI807
aI3010
asg9
I0
sa(dp568
g2
I0
sg3
g4
sg5
S'ornamentTurnInverted'
p569
sg7
(lp570
I776
aI2706
aI817
aI2725
asg9
I0
sa(dp571
g2
I0
sg3
g4
sg5
S'noteheadBlack'
p572
sg7
(lp573
I786
aI2752
aI807
aI2773
asg9
I0
sa(dp574
g2
I0
sg3
g4
sg5
S'dynamicMF'
p575
sg7
(lp576
I773
aI2591
aI823
aI2624
asg9
I0
sa(dp577
g2
I0
sg3
g4
sg5
S'dynamicFFF'
p578
sg7
(lp579
I1028
aI2107
aI1083
aI2140
asg9
I0
sa(dp580
g2
I0
sg3
g4
sg5
S'dynamicPiano'
p581
sg7
(lp582
I1043
aI3303
aI1066
aI3331
asg9
I0
sa(dp583
g2
I0
sg3
g4
sg5
S'noteheadBlack'
p584
sg7
(lp585
I1047
aI3268
aI1068
aI3289
asg9
I0
sa(dp586
g2
I0
sg3
g4
sg5
S'noteheadBlack'
p587
sg7
(lp588
I786
aI2493
aI807
aI2514
asg9
I0
sa(dp589
g2
I0
sg3
g4
sg5
S'noteheadBlack'
p590
sg7
(lp591
I1047
aI1978
aI1068
aI1998
asg9
I0
sa(dp592
g2
I0
sg3
g4
sg5
S'noteheadBlack'
p593
sg7
(lp594
I786
aI2009
aI807
aI2030
asg9
I0
sa(dp595
g2
I0
sg3
g4
sg5
S'dynamicMP'
p596
sg7
(lp597
I486
aI2619
aI537
aI2647
asg9
I0
sa(dp598
g2
I0
sg3
g4
sg5
S'noteheadBlack'
p599
sg7
(lp600
I501
aI2525
aI522
aI2546
asg9
I0
sa(dp601
g2
I0
sg3
g4
sg5
S'noteheadBlack'
p602
sg7
(lp603
I501
aI2030
aI522
aI2051
asg9
I0
sa(dp604
g2
I0
sg3
g4
sg5
S'noteheadBlack'
p605
sg7
(lp606
I641
aI2514
aI662
aI2535
asg9
I0
sa.