(lp0
(dp1
S'difficult'
p2
I0
sS'pose'
p3
S'Unspecified'
p4
sS'name'
p5
S'noteheadBlack'
p6
sS'bbox'
p7
(lp8
I2008
aI2544
aI2038
aI2569
asS'truncated'
p9
I0
sa(dp10
g2
I0
sg3
g4
sg5
S'noteheadBlack'
p11
sg7
(lp12
I1728
aI2544
aI1758
aI2569
asg9
I0
sa(dp13
g2
I0
sg3
g4
sg5
S'accidentalNatural'
p14
sg7
(lp15
I1984
aI2522
aI2001
aI2592
asg9
I0
sa(dp16
g2
I0
sg3
g4
sg5
S'noteheadBlack'
p17
sg7
(lp18
I2289
aI2544
aI2319
aI2569
asg9
I0
sa(dp19
g2
I0
sg3
g4
sg5
S'noteheadBlack'
p20
sg7
(lp21
I1162
aI2567
aI1191
aI2592
asg9
I0
sa(dp22
g2
I0
sg3
g4
sg5
S'noteheadBlack'
p23
sg7
(lp24
I1448
aI2544
aI1477
aI2569
asg9
I0
sa(dp25
g2
I0
sg3
g4
sg5
S'keyFlat'
p26
sg7
(lp27
I227
aI800
aI248
aI858
asg9
I0
sa(dp28
g2
I0
sg3
g4
sg5
S'keyFlat'
p29
sg7
(lp30
I248
aI766
aI269
aI824
asg9
I0
sa(dp31
g2
I0
sg3
g4
sg5
S'gClef'
p32
sg7
(lp33
I147
aI193
aI206
aI360
asg9
I0
sa(dp34
g2
I0
sg3
g4
sg5
S'keyFlat'
p35
sg7
(lp36
I227
aI237
aI248
aI294
asg9
I0
sa(dp37
g2
I0
sg3
g4
sg5
S'keyFlat'
p38
sg7
(lp39
I248
aI203
aI269
aI260
asg9
I0
sa(dp40
g2
I0
sg3
g4
sg5
S'gClef'
p41
sg7
(lp42
I147
aI757
aI206
aI924
asg9
I0
sa(dp43
g2
I0
sg3
g4
sg5
S'coda'
p44
sg7
(lp45
I239
aI126
aI300
aI206
asg9
I0
sa(dp46
g2
I0
sg3
g4
sg5
S'cClefAlto'
p47
sg7
(lp48
I147
aI1361
aI209
aI1452
asg9
I0
sa(dp49
g2
I0
sg3
g4
sg5
S'keyFlat'
p50
sg7
(lp51
I227
aI1376
aI248
aI1433
asg9
I0
sa(dp52
g2
I0
sg3
g4
sg5
S'keyFlat'
p53
sg7
(lp54
I248
aI1341
aI269
aI1399
asg9
I0
sa(dp55
g2
I0
sg3
g4
sg5
S'fClef'
p56
sg7
(lp57
I146
aI1923
aI207
aI1994
asg9
I0
sa(dp58
g2
I0
sg3
g4
sg5
S'keyFlat'
p59
sg7
(lp60
I227
aI1951
aI248
aI2008
asg9
I0
sa(dp61
g2
I0
sg3
g4
sg5
S'keyFlat'
p62
sg7
(lp63
I248
aI1916
aI269
aI1974
asg9
I0
sa(dp64
g2
I0
sg3
g4
sg5
S'restWhole'
p65
sg7
(lp66
I1404
aI256
aI1439
aI271
asg9
I0
sa(dp67
g2
I0
sg3
g4
sg5
S'restWhole'
p68
sg7
(lp69
I1404
aI820
aI1439
aI834
asg9
I0
sa(dp70
g2
I0
sg3
g4
sg5
S'restWhole'
p71
sg7
(lp72
I1404
aI1384
aI1439
aI1398
asg9
I0
sa(dp73
g2
I0
sg3
g4
sg5
S'restWhole'
p74
sg7
(lp75
I1404
aI1947
aI1439
aI1962
asg9
I0
sa(dp76
g2
I0
sg3
g4
sg5
S'noteheadBlack'
p77
sg7
(lp78
I326
aI2533
aI356
aI2558
asg9
I0
sa(dp79
g2
I0
sg3
g4
sg5
S'noteheadBlack'
p80
sg7
(lp81
I607
aI2533
aI636
aI2558
asg9
I0
sa(dp82
g2
I0
sg3
g4
sg5
S'dynamicForte'
p83
sg7
(lp84
I317
aI2595
aI366
aI2654
asg9
I0
sa(dp85
g2
I0
sg3
g4
sg5
S'keyFlat'
p86
sg7
(lp87
I227
aI2514
aI248
aI2572
asg9
I0
sa(dp88
g2
I0
sg3
g4
sg5
S'keyFlat'
p89
sg7
(lp90
I248
aI2480
aI269
aI2537
asg9
I0
sa(dp91
g2
I0
sg3
g4
sg5
S'noteheadBlack'
p92
sg7
(lp93
I881
aI2567
aI911
aI2592
asg9
I0
sa(dp94
g2
I0
sg3
g4
sg5
S'clef8'
p95
sg7
(lp96
I159
aI2586
aI190
aI2608
asg9
I0
sa(dp97
g2
I0
sg3
g4
sg5
S'fClef'
p98
sg7
(lp99
I146
aI2487
aI207
aI2558
asg9
I0
sa.