(lp0
(dp1
S'difficult'
p2
I0
sS'pose'
p3
S'Unspecified'
p4
sS'name'
p5
S'noteheadBlack'
p6
sS'bbox'
p7
(lp8
I1836
aI799
aI1865
aI824
asS'truncated'
p9
I0
sa(dp10
g2
I0
sg3
g4
sg5
S'noteheadBlack'
p11
sg7
(lp12
I1836
aI1601
aI1865
aI1626
asg9
I0
sa(dp13
g2
I0
sg3
g4
sg5
S'noteheadBlack'
p14
sg7
(lp15
I1836
aI224
aI1865
aI249
asg9
I0
sa(dp16
g2
I0
sg3
g4
sg5
S'noteheadBlack'
p17
sg7
(lp18
I1836
aI281
aI1865
aI306
asg9
I0
sa(dp19
g2
I0
sg3
g4
sg5
S'noteheadBlack'
p20
sg7
(lp21
I1423
aI776
aI1452
aI802
asg9
I0
sa(dp22
g2
I0
sg3
g4
sg5
S'noteheadBlack'
p23
sg7
(lp24
I1836
aI1059
aI1865
aI1084
asg9
I0
sa(dp25
g2
I0
sg3
g4
sg5
S'noteheadBlack'
p26
sg7
(lp27
I1423
aI1036
aI1452
aI1061
asg9
I0
sa(dp28
g2
I0
sg3
g4
sg5
S'noteheadBlack'
p29
sg7
(lp30
I1836
aI1319
aI1865
aI1344
asg9
I0
sa(dp31
g2
I0
sg3
g4
sg5
S'noteheadBlack'
p32
sg7
(lp33
I1725
aI224
aI1754
aI249
asg9
I0
sa(dp34
g2
I0
sg3
g4
sg5
S'noteheadBlack'
p35
sg7
(lp36
I1779
aI1093
aI1808
aI1118
asg9
I0
sa(dp37
g2
I0
sg3
g4
sg5
S'noteheadBlack'
p38
sg7
(lp39
I1779
aI811
aI1808
aI836
asg9
I0
sa(dp40
g2
I0
sg3
g4
sg5
S'noteheadBlack'
p41
sg7
(lp42
I1779
aI258
aI1808
aI283
asg9
I0
sa(dp43
g2
I0
sg3
g4
sg5
S'noteheadBlack'
p44
sg7
(lp45
I1779
aI1353
aI1808
aI1378
asg9
I0
sa(dp46
g2
I0
sg3
g4
sg5
S'noteheadBlack'
p47
sg7
(lp48
I1725
aI281
aI1754
aI306
asg9
I0
sa(dp49
g2
I0
sg3
g4
sg5
S'noteheadBlack'
p50
sg7
(lp51
I1779
aI1613
aI1808
aI1638
asg9
I0
sa(dp52
g2
I0
sg3
g4
sg5
S'noteheadBlack'
p53
sg7
(lp54
I1943
aI258
aI1972
aI283
asg9
I0
sa(dp55
g2
I0
sg3
g4
sg5
S'noteheadBlack'
p56
sg7
(lp57
I1943
aI304
aI1972
aI329
asg9
I0
sa(dp58
g2
I0
sg3
g4
sg5
S'noteheadBlack'
p59
sg7
(lp60
I1998
aI1093
aI2027
aI1118
asg9
I0
sa(dp61
g2
I0
sg3
g4
sg5
S'noteheadBlack'
p62
sg7
(lp63
I1998
aI1613
aI2027
aI1638
asg9
I0
sa(dp64
g2
I0
sg3
g4
sg5
S'noteheadBlack'
p65
sg7
(lp66
I1998
aI1353
aI2027
aI1378
asg9
I0
sa(dp67
g2
I0
sg3
g4
sg5
S'noteheadBlack'
p68
sg7
(lp69
I1998
aI811
aI2027
aI836
asg9
I0
sa(dp70
g2
I0
sg3
g4
sg5
S'noteheadBlack'
p71
sg7
(lp72
I1998
aI281
aI2027
aI306
asg9
I0
sa(dp73
g2
I0
sg3
g4
sg5
S'noteheadHalf'
p74
sg7
(lp75
I1890
aI482
aI1922
aI508
asg9
I0
sa(dp76
g2
I0
sg3
g4
sg5
S'noteheadHalf'
p77
sg7
(lp78
I1890
aI517
aI1922
aI542
asg9
I0
sa(dp79
g2
I0
sg3
g4
sg5
S'noteheadHalf'
p80
sg7
(lp81
I1890
aI540
aI1922
aI565
asg9
I0
sa(dp82
g2
I0
sg3
g4
sg5
S'rest8th'
p83
sg7
(lp84
I1890
aI229
aI1918
aI272
asg9
I0
sa(dp85
g2
I0
sg3
g4
sg5
S'noteheadBlack'
p86
sg7
(lp87
I1423
aI551
aI1452
aI576
asg9
I0
sa(dp88
g2
I0
sg3
g4
sg5
S'noteheadBlack'
p89
sg7
(lp90
I1890
aI1590
aI1919
aI1615
asg9
I0
sa(dp91
g2
I0
sg3
g4
sg5
S'rest8th'
p92
sg7
(lp93
I1423
aI229
aI1451
aI272
asg9
I0
sa(dp94
g2
I0
sg3
g4
sg5
S'noteheadBlack'
p95
sg7
(lp96
I1890
aI1330
aI1919
aI1355
asg9
I0
sa(dp97
g2
I0
sg3
g4
sg5
S'noteheadBlack'
p98
sg7
(lp99
I1890
aI1070
aI1919
aI1096
asg9
I0
sa(dp100
g2
I0
sg3
g4
sg5
S'noteheadBlack'
p101
sg7
(lp102
I1890
aI788
aI1919
aI813
asg9
I0
sa(dp103
g2
I0
sg3
g4
sg5
S'noteheadBlack'
p104
sg7
(lp105
I1594
aI471
aI1623
aI496
asg9
I0
sa(dp106
g2
I0
sg3
g4
sg5
S'noteheadBlack'
p107
sg7
(lp108
I1594
aI247
aI1623
aI272
asg9
I0
sa(dp109
g2
I0
sg3
g4
sg5
S'noteheadBlack'
p110
sg7
(lp111
I1594
aI292
aI1623
aI318
asg9
I0
sa(dp112
g2
I0
sg3
g4
sg5
S'noteheadBlack'
p113
sg7
(lp114
I1480
aI528
aI1509
aI553
asg9
I0
sa(dp115
g2
I0
sg3
g4
sg5
S'noteheadBlack'
p116
sg7
(lp117
I1480
aI247
aI1509
aI272
asg9
I0
sa(dp118
g2
I0
sg3
g4
sg5
S'noteheadBlack'
p119
sg7
(lp120
I1480
aI292
aI1509
aI318
asg9
I0
sa(dp121
g2
I0
sg3
g4
sg5
S'noteheadBlack'
p122
sg7
(lp123
I1537
aI1601
aI1566
aI1626
asg9
I0
sa(dp124
g2
I0
sg3
g4
sg5
S'noteheadBlack'
p125
sg7
(lp126
I1537
aI1341
aI1566
aI1367
asg9
I0
sa(dp127
g2
I0
sg3
g4
sg5
S'noteheadBlack'
p128
sg7
(lp129
I1537
aI1082
aI1566
aI1107
asg9
I0
sa(dp130
g2
I0
sg3
g4
sg5
S'noteheadBlack'
p131
sg7
(lp132
I1537
aI799
aI1566
aI824
asg9
I0
sa(dp133
g2
I0
sg3
g4
sg5
S'noteheadBlack'
p134
sg7
(lp135
I1537
aI505
aI1566
aI530
asg9
I0
sa(dp136
g2
I0
sg3
g4
sg5
S'noteheadBlack'
p137
sg7
(lp138
I1537
aI270
aI1566
aI295
asg9
I0
sa(dp139
g2
I0
sg3
g4
sg5
S'noteheadBlack'
p140
sg7
(lp141
I1423
aI1578
aI1452
aI1604
asg9
I0
sa(dp142
g2
I0
sg3
g4
sg5
S'noteheadBlack'
p143
sg7
(lp144
I1423
aI1296
aI1452
aI1321
asg9
I0
sa(dp145
g2
I0
sg3
g4
sg5
S'noteheadBlack'
p146
sg7
(lp147
I1672
aI1590
aI1701
aI1615
asg9
I0
sa(dp148
g2
I0
sg3
g4
sg5
S'noteheadBlack'
p149
sg7
(lp150
I1672
aI1330
aI1701
aI1355
asg9
I0
sa(dp151
g2
I0
sg3
g4
sg5
S'noteheadBlack'
p152
sg7
(lp153
I1672
aI1070
aI1701
aI1096
asg9
I0
sa(dp154
g2
I0
sg3
g4
sg5
S'noteheadBlack'
p155
sg7
(lp156
I1672
aI788
aI1701
aI813
asg9
I0
sa(dp157
g2
I0
sg3
g4
sg5
S'noteheadHalf'
p158
sg7
(lp159
I1672
aI482
aI1703
aI508
asg9
I0
sa(dp160
g2
I0
sg3
g4
sg5
S'noteheadHalf'
p161
sg7
(lp162
I1672
aI517
aI1703
aI542
asg9
I0
sa(dp163
g2
I0
sg3
g4
sg5
S'noteheadHalf'
p164
sg7
(lp165
I1672
aI540
aI1703
aI565
asg9
I0
sa(dp166
g2
I0
sg3
g4
sg5
S'rest8th'
p167
sg7
(lp168
I1672
aI229
aI1699
aI272
asg9
I0
sa(dp169
g2
I0
sg3
g4
sg5
S'noteheadBlack'
p170
sg7
(lp171
I2459
aI1635
aI2488
aI1661
asg9
I0
sa(dp172
g2
I0
sg3
g4
sg5
S'noteheadBlack'
p173
sg7
(lp174
I2459
aI1376
aI2488
aI1401
asg9
I0
sa(dp175
g2
I0
sg3
g4
sg5
S'noteheadBlack'
p176
sg7
(lp177
I2459
aI1116
aI2488
aI1141
asg9
I0
sa(dp178
g2
I0
sg3
g4
sg5
S'noteheadBlack'
p179
sg7
(lp180
I2459
aI833
aI2488
aI859
asg9
I0
sa(dp181
g2
I0
sg3
g4
sg5
S'noteheadBlack'
p182
sg7
(lp183
I2459
aI304
aI2488
aI329
asg9
I0
sa(dp184
g2
I0
sg3
g4
sg5
S'noteheadBlack'
p185
sg7
(lp186
I2405
aI270
aI2434
aI295
asg9
I0
sa(dp187
g2
I0
sg3
g4
sg5
S'noteheadBlack'
p188
sg7
(lp189
I2405
aI327
aI2434
aI352
asg9
I0
sa(dp190
g2
I0
sg3
g4
sg5
S'rest8th'
p191
sg7
(lp192
I2352
aI229
aI2380
aI272
asg9
I0
sa(dp193
g2
I0
sg3
g4
sg5
S'noteheadBlack'
p194
sg7
(lp195
I2352
aI1601
aI2381
aI1626
asg9
I0
sa(dp196
g2
I0
sg3
g4
sg5
S'noteheadBlack'
p197
sg7
(lp198
I2352
aI1353
aI2381
aI1378
asg9
I0
sa(dp199
g2
I0
sg3
g4
sg5
S'noteheadBlack'
p200
sg7
(lp201
I2352
aI1093
aI2381
aI1118
asg9
I0
sa(dp202
g2
I0
sg3
g4
sg5
S'noteheadBlack'
p203
sg7
(lp204
I2352
aI799
aI2381
aI824
asg9
I0
sa(dp205
g2
I0
sg3
g4
sg5
S'noteheadHalf'
p206
sg7
(lp207
I2352
aI460
aI2383
aI485
asg9
I0
sa(dp208
g2
I0
sg3
g4
sg5
S'noteheadHalf'
p209
sg7
(lp210
I2352
aI482
aI2383
aI508
asg9
I0
sa(dp211
g2
I0
sg3
g4
sg5
S'noteheadHalf'
p212
sg7
(lp213
I2352
aI505
aI2383
aI530
asg9
I0
sa(dp214
g2
I0
sg3
g4
sg5
S'noteheadHalf'
p215
sg7
(lp216
I2352
aI528
aI2383
aI553
asg9
I0
sa(dp217
g2
I0
sg3
g4
sg5
S'noteheadBlack'
p218
sg7
(lp219
I2514
aI270
aI2543
aI295
asg9
I0
sa(dp220
g2
I0
sg3
g4
sg5
S'noteheadBlack'
p221
sg7
(lp222
I2514
aI327
aI2543
aI352
asg9
I0
sa(dp223
g2
I0
sg3
g4
sg5
S'noteheadBlack'
p224
sg7
(lp225
I2052
aI258
aI2081
aI283
asg9
I0
sa(dp226
g2
I0
sg3
g4
sg5
S'noteheadBlack'
p227
sg7
(lp228
I2052
aI304
aI2081
aI329
asg9
I0
sa(dp229
g2
I0
sg3
g4
sg5
S'noteheadHalf'
p230
sg7
(lp231
I2131
aI482
aI2162
aI508
asg9
I0
sa(dp232
g2
I0
sg3
g4
sg5
S'noteheadBlack'
p233
sg7
(lp234
I2131
aI1601
aI2160
aI1626
asg9
I0
sa(dp235
g2
I0
sg3
g4
sg5
S'noteheadBlack'
p236
sg7
(lp237
I2131
aI1353
aI2160
aI1378
asg9
I0
sa(dp238
g2
I0
sg3
g4
sg5
S'noteheadBlack'
p239
sg7
(lp240
I2131
aI1093
aI2160
aI1118
asg9
I0
sa(dp241
g2
I0
sg3
g4
sg5
S'noteheadBlack'
p242
sg7
(lp243
I2131
aI799
aI2160
aI824
asg9
I0
sa(dp244
g2
I0
sg3
g4
sg5
S'noteheadHalf'
p245
sg7
(lp246
I2131
aI448
aI2162
aI473
asg9
I0
sa(dp247
g2
I0
sg3
g4
sg5
S'noteheadHalf'
p248
sg7
(lp249
I2131
aI505
aI2162
aI530
asg9
I0
sa(dp250
g2
I0
sg3
g4
sg5
S'noteheadHalf'
p251
sg7
(lp252
I2131
aI528
aI2162
aI553
asg9
I0
sa(dp253
g2
I0
sg3
g4
sg5
S'rest8th'
p254
sg7
(lp255
I2131
aI229
aI2159
aI272
asg9
I0
sa(dp256
g2
I0
sg3
g4
sg5
S'noteheadBlack'
p257
sg7
(lp258
I2297
aI1353
aI2326
aI1378
asg9
I0
sa(dp259
g2
I0
sg3
g4
sg5
S'noteheadBlack'
p260
sg7
(lp261
I2297
aI1093
aI2326
aI1118
asg9
I0
sa(dp262
g2
I0
sg3
g4
sg5
S'noteheadBlack'
p263
sg7
(lp264
I2297
aI811
aI2326
aI836
asg9
I0
sa(dp265
g2
I0
sg3
g4
sg5
S'noteheadBlack'
p266
sg7
(lp267
I2297
aI247
aI2326
aI272
asg9
I0
sa(dp268
g2
I0
sg3
g4
sg5
S'noteheadBlack'
p269
sg7
(lp270
I2297
aI304
aI2326
aI329
asg9
I0
sa(dp271
g2
I0
sg3
g4
sg5
S'noteheadBlack'
p272
sg7
(lp273
I2297
aI1613
aI2326
aI1638
asg9
I0
sa(dp274
g2
I0
sg3
g4
sg5
S'noteheadBlack'
p275
sg7
(lp276
I2184
aI247
aI2213
aI272
asg9
I0
sa(dp277
g2
I0
sg3
g4
sg5
S'noteheadBlack'
p278
sg7
(lp279
I2184
aI304
aI2213
aI329
asg9
I0
sa(dp280
g2
I0
sg3
g4
sg5
S'noteheadBlack'
p281
sg7
(lp282
I2238
aI270
aI2267
aI295
asg9
I0
sa(dp283
g2
I0
sg3
g4
sg5
S'noteheadBlack'
p284
sg7
(lp285
I2238
aI1635
aI2267
aI1661
asg9
I0
sa(dp286
g2
I0
sg3
g4
sg5
S'noteheadBlack'
p287
sg7
(lp288
I2238
aI1376
aI2267
aI1401
asg9
I0
sa(dp289
g2
I0
sg3
g4
sg5
S'noteheadBlack'
p290
sg7
(lp291
I2238
aI1116
aI2267
aI1141
asg9
I0
sa(dp292
g2
I0
sg3
g4
sg5
S'noteheadBlack'
p293
sg7
(lp294
I2238
aI833
aI2267
aI859
asg9
I0
sa(dp295
g2
I0
sg3
g4
sg5
S'noteheadBlack'
p296
sg7
(lp297
I522
aI482
aI551
aI508
asg9
I0
sa(dp298
g2
I0
sg3
g4
sg5
S'noteheadBlack'
p299
sg7
(lp300
I522
aI270
aI551
aI295
asg9
I0
sa(dp301
g2
I0
sg3
g4
sg5
S'noteheadBlack'
p302
sg7
(lp303
I522
aI327
aI551
aI352
asg9
I0
sa(dp304
g2
I0
sg3
g4
sg5
S'noteheadBlack'
p305
sg7
(lp306
I574
aI1399
aI603
aI1424
asg9
I0
sa(dp307
g2
I0
sg3
g4
sg5
S'noteheadBlack'
p308
sg7
(lp309
I574
aI1070
aI603
aI1096
asg9
I0
sa(dp310
g2
I0
sg3
g4
sg5
S'noteheadBlack'
p311
sg7
(lp312
I574
aI811
aI603
aI836
asg9
I0
sa(dp313
g2
I0
sg3
g4
sg5
S'noteheadBlack'
p314
sg7
(lp315
I574
aI505
aI603
aI530
asg9
I0
sa(dp316
g2
I0
sg3
g4
sg5
S'noteheadBlack'
p317
sg7
(lp318
I574
aI304
aI603
aI329
asg9
I0
sa(dp319
g2
I0
sg3
g4
sg5
S'noteheadBlack'
p320
sg7
(lp321
I471
aI833
aI500
aI859
asg9
I0
sa(dp322
g2
I0
sg3
g4
sg5
S'noteheadBlack'
p323
sg7
(lp324
I471
aI460
aI500
aI485
asg9
I0
sa(dp325
g2
I0
sg3
g4
sg5
S'noteheadBlack'
p326
sg7
(lp327
I471
aI304
aI500
aI329
asg9
I0
sa(dp328
g2
I0
sg3
g4
sg5
S'noteheadBlack'
p329
sg7
(lp330
I471
aI1093
aI500
aI1118
asg9
I0
sa(dp331
g2
I0
sg3
g4
sg5
S'noteheadHalf'
p332
sg7
(lp333
I471
aI1578
aI502
aI1604
asg9
I0
sa(dp334
g2
I0
sg3
g4
sg5
S'noteheadBlack'
p335
sg7
(lp336
I471
aI1410
aI500
aI1435
asg9
I0
sa(dp337
g2
I0
sg3
g4
sg5
S'augmentationDot'
p338
sg7
(lp339
I753
aI783
aI764
aI795
asg9
I0
sa(dp340
g2
I0
sg3
g4
sg5
S'augmentationDot'
p341
sg7
(lp342
I753
aI1349
aI764
aI1360
asg9
I0
sa(dp343
g2
I0
sg3
g4
sg5
S'noteheadBlack'
p344
sg7
(lp345
I625
aI528
aI654
aI553
asg9
I0
sa(dp346
g2
I0
sg3
g4
sg5
S'noteheadBlack'
p347
sg7
(lp348
I625
aI270
aI654
aI295
asg9
I0
sa(dp349
g2
I0
sg3
g4
sg5
S'noteheadBlack'
p350
sg7
(lp351
I625
aI327
aI654
aI352
asg9
I0
sa(dp352
g2
I0
sg3
g4
sg5
S'noteheadHalf'
p353
sg7
(lp354
I711
aI1624
aI742
aI1649
asg9
I0
sa(dp355
g2
I0
sg3
g4
sg5
S'noteheadHalf'
p356
sg7
(lp357
I711
aI1342
aI742
aI1367
asg9
I0
sa(dp358
g2
I0
sg3
g4
sg5
S'noteheadHalf'
p359
sg7
(lp360
I711
aI1059
aI742
aI1084
asg9
I0
sa(dp361
g2
I0
sg3
g4
sg5
S'noteheadHalf'
p362
sg7
(lp363
I711
aI776
aI742
aI802
asg9
I0
sa(dp364
g2
I0
sg3
g4
sg5
S'noteheadHalf'
p365
sg7
(lp366
I711
aI471
aI742
aI496
asg9
I0
sa(dp367
g2
I0
sg3
g4
sg5
S'noteheadHalf'
p368
sg7
(lp369
I711
aI505
aI742
aI530
asg9
I0
sa(dp370
g2
I0
sg3
g4
sg5
S'noteheadHalf'
p371
sg7
(lp372
I711
aI528
aI742
aI553
asg9
I0
sa(dp373
g2
I0
sg3
g4
sg5
S'noteheadBlack'
p374
sg7
(lp375
I711
aI292
aI740
aI318
asg9
I0
sa(dp376
g2
I0
sg3
g4
sg5
S'noteheadBlack'
p377
sg7
(lp378
I264
aI448
aI293
aI473
asg9
I0
sa(dp379
g2
I0
sg3
g4
sg5
S'noteheadBlack'
p380
sg7
(lp381
I264
aI270
aI293
aI295
asg9
I0
sa(dp382
g2
I0
sg3
g4
sg5
S'noteheadBlack'
p383
sg7
(lp384
I264
aI776
aI293
aI802
asg9
I0
sa(dp385
g2
I0
sg3
g4
sg5
S'fClef'
p386
sg7
(lp387
I147
aI1556
aI212
aI1634
asg9
I0
sa(dp388
g2
I0
sg3
g4
sg5
S'clef8'
p389
sg7
(lp390
I165
aI1426
aI197
aI1448
asg9
I0
sa(dp391
g2
I0
sg3
g4
sg5
S'gClef'
p392
sg7
(lp393
I151
aI1251
aI213
aI1424
asg9
I0
sa(dp394
g2
I0
sg3
g4
sg5
S'noteheadHalf'
p395
sg7
(lp396
I264
aI1601
aI295
aI1626
asg9
I0
sa(dp397
g2
I0
sg3
g4
sg5
S'noteheadBlack'
p398
sg7
(lp399
I264
aI1319
aI293
aI1344
asg9
I0
sa(dp400
g2
I0
sg3
g4
sg5
S'noteheadBlack'
p401
sg7
(lp402
I264
aI1036
aI293
aI1061
asg9
I0
sa(dp403
g2
I0
sg3
g4
sg5
S'brace'
p404
sg7
(lp405
I101
aI248
aI122
aI575
asg9
I0
sa(dp406
g2
I0
sg3
g4
sg5
S'gClef'
p407
sg7
(lp408
I151
aI991
aI213
aI1164
asg9
I0
sa(dp409
g2
I0
sg3
g4
sg5
S'gClef'
p410
sg7
(lp411
I151
aI731
aI213
aI904
asg9
I0
sa(dp412
g2
I0
sg3
g4
sg5
S'fClef'
p413
sg7
(lp414
I147
aI483
aI212
aI561
asg9
I0
sa(dp415
g2
I0
sg3
g4
sg5
S'gClef'
p416
sg7
(lp417
I151
aI202
aI213
aI375
asg9
I0
sa(dp418
g2
I0
sg3
g4
sg5
S'noteheadBlack'
p419
sg7
(lp420
I419
aI1376
aI448
aI1401
asg9
I0
sa(dp421
g2
I0
sg3
g4
sg5
S'noteheadBlack'
p422
sg7
(lp423
I419
aI1070
aI448
aI1096
asg9
I0
sa(dp424
g2
I0
sg3
g4
sg5
S'noteheadBlack'
p425
sg7
(lp426
I419
aI811
aI448
aI836
asg9
I0
sa(dp427
g2
I0
sg3
g4
sg5
S'noteheadBlack'
p428
sg7
(lp429
I419
aI528
aI448
aI553
asg9
I0
sa(dp430
g2
I0
sg3
g4
sg5
S'noteheadBlack'
p431
sg7
(lp432
I419
aI247
aI448
aI272
asg9
I0
sa(dp433
g2
I0
sg3
g4
sg5
S'noteheadBlack'
p434
sg7
(lp435
I419
aI304
aI448
aI329
asg9
I0
sa(dp436
g2
I0
sg3
g4
sg5
S'noteheadBlack'
p437
sg7
(lp438
I315
aI482
aI344
aI508
asg9
I0
sa(dp439
g2
I0
sg3
g4
sg5
S'noteheadBlack'
p440
sg7
(lp441
I315
aI247
aI344
aI272
asg9
I0
sa(dp442
g2
I0
sg3
g4
sg5
S'noteheadBlack'
p443
sg7
(lp444
I315
aI304
aI344
aI329
asg9
I0
sa(dp445
g2
I0
sg3
g4
sg5
S'noteheadBlack'
p446
sg7
(lp447
I367
aI799
aI396
aI824
asg9
I0
sa(dp448
g2
I0
sg3
g4
sg5
S'noteheadBlack'
p449
sg7
(lp450
I367
aI1353
aI396
aI1378
asg9
I0
sa(dp451
g2
I0
sg3
g4
sg5
S'noteheadBlack'
p452
sg7
(lp453
I367
aI1059
aI396
aI1084
asg9
I0
sa(dp454
g2
I0
sg3
g4
sg5
S'augmentationDot'
p455
sg7
(lp456
I753
aI1066
aI764
aI1077
asg9
I0
sa(dp457
g2
I0
sg3
g4
sg5
S'noteheadBlack'
p458
sg7
(lp459
I367
aI505
aI396
aI530
asg9
I0
sa(dp460
g2
I0
sg3
g4
sg5
S'noteheadBlack'
p461
sg7
(lp462
I367
aI270
aI396
aI295
asg9
I0
sa(dp463
g2
I0
sg3
g4
sg5
S'accidentalSharp'
p464
sg7
(lp465
I1207
aI282
aI1232
aI350
asg9
I0
sa(dp466
g2
I0
sg3
g4
sg5
S'noteheadBlack'
p467
sg7
(lp468
I1294
aI528
aI1323
aI553
asg9
I0
sa(dp469
g2
I0
sg3
g4
sg5
S'noteheadBlack'
p470
sg7
(lp471
I1294
aI270
aI1323
aI295
asg9
I0
sa(dp472
g2
I0
sg3
g4
sg5
S'noteheadBlack'
p473
sg7
(lp474
I1240
aI517
aI1269
aI542
asg9
I0
sa(dp475
g2
I0
sg3
g4
sg5
S'noteheadBlack'
p476
sg7
(lp477
I1240
aI247
aI1269
aI272
asg9
I0
sa(dp478
g2
I0
sg3
g4
sg5
S'noteheadBlack'
p479
sg7
(lp480
I1240
aI304
aI1269
aI329
asg9
I0
sa(dp481
g2
I0
sg3
g4
sg5
S'dynamicMF'
p482
sg7
(lp483
I1152
aI1671
aI1228
aI1725
asg9
I0
sa(dp484
g2
I0
sg3
g4
sg5
S'noteheadBlack'
p485
sg7
(lp486
I1172
aI1578
aI1201
aI1604
asg9
I0
sa(dp487
g2
I0
sg3
g4
sg5
S'dynamicMP'
p488
sg7
(lp489
I1148
aI1424
aI1223
aI1463
asg9
I0
sa(dp490
g2
I0
sg3
g4
sg5
S'noteheadBlack'
p491
sg7
(lp492
I1172
aI1319
aI1201
aI1344
asg9
I0
sa(dp493
g2
I0
sg3
g4
sg5
S'noteheadBlack'
p494
sg7
(lp495
I1294
aI799
aI1323
aI824
asg9
I0
sa(dp496
g2
I0
sg3
g4
sg5
S'accidentalSharp'
p497
sg7
(lp498
I1335
aI541
aI1359
aI609
asg9
I0
sa(dp499
g2
I0
sg3
g4
sg5
S'noteheadBlack'
p500
sg7
(lp501
I1367
aI1590
aI1396
aI1615
asg9
I0
sa(dp502
g2
I0
sg3
g4
sg5
S'noteheadBlack'
p503
sg7
(lp504
I1367
aI1330
aI1396
aI1355
asg9
I0
sa(dp505
g2
I0
sg3
g4
sg5
S'noteheadBlack'
p506
sg7
(lp507
I1367
aI1070
aI1396
aI1096
asg9
I0
sa(dp508
g2
I0
sg3
g4
sg5
S'noteheadBlack'
p509
sg7
(lp510
I1367
aI788
aI1396
aI813
asg9
I0
sa(dp511
g2
I0
sg3
g4
sg5
S'noteheadBlack'
p512
sg7
(lp513
I1367
aI562
aI1396
aI587
asg9
I0
sa(dp514
g2
I0
sg3
g4
sg5
S'noteheadBlack'
p515
sg7
(lp516
I1367
aI247
aI1396
aI272
asg9
I0
sa(dp517
g2
I0
sg3
g4
sg5
S'noteheadBlack'
p518
sg7
(lp519
I1367
aI304
aI1396
aI329
asg9
I0
sa(dp520
g2
I0
sg3
g4
sg5
S'noteheadBlack'
p521
sg7
(lp522
I1294
aI1601
aI1323
aI1626
asg9
I0
sa(dp523
g2
I0
sg3
g4
sg5
S'noteheadBlack'
p524
sg7
(lp525
I1294
aI1353
aI1323
aI1378
asg9
I0
sa(dp526
g2
I0
sg3
g4
sg5
S'noteheadBlack'
p527
sg7
(lp528
I1294
aI1093
aI1323
aI1118
asg9
I0
sa(dp529
g2
I0
sg3
g4
sg5
S'accidentalSharp'
p530
sg7
(lp531
I1261
aI1331
aI1286
aI1399
asg9
I0
sa(dp532
g2
I0
sg3
g4
sg5
S'accidentalSharp'
p533
sg7
(lp534
I1261
aI1072
aI1286
aI1140
asg9
I0
sa(dp535
g2
I0
sg3
g4
sg5
S'noteheadHalf'
p536
sg7
(lp537
I928
aI1601
aI959
aI1626
asg9
I0
sa(dp538
g2
I0
sg3
g4
sg5
S'noteheadBlack'
p539
sg7
(lp540
I928
aI528
aI957
aI553
asg9
I0
sa(dp541
g2
I0
sg3
g4
sg5
S'noteheadBlack'
p542
sg7
(lp543
I928
aI270
aI957
aI295
asg9
I0
sa(dp544
g2
I0
sg3
g4
sg5
S'dynamicMP'
p545
sg7
(lp546
I1148
aI1164
aI1223
aI1203
asg9
I0
sa(dp547
g2
I0
sg3
g4
sg5
S'noteheadBlack'
p548
sg7
(lp549
I874
aI247
aI903
aI272
asg9
I0
sa(dp550
g2
I0
sg3
g4
sg5
S'noteheadBlack'
p551
sg7
(lp552
I985
aI247
aI1014
aI272
asg9
I0
sa(dp553
g2
I0
sg3
g4
sg5
S'noteheadBlack'
p554
sg7
(lp555
I985
aI304
aI1014
aI329
asg9
I0
sa(dp556
g2
I0
sg3
g4
sg5
S'noteheadBlack'
p557
sg7
(lp558
I874
aI292
aI903
aI318
asg9
I0
sa(dp559
g2
I0
sg3
g4
sg5
S'noteheadBlack'
p560
sg7
(lp561
I819
aI270
aI848
aI295
asg9
I0
sa(dp562
g2
I0
sg3
g4
sg5
S'noteheadBlack'
p563
sg7
(lp564
I985
aI505
aI1014
aI530
asg9
I0
sa(dp565
g2
I0
sg3
g4
sg5
S'noteheadBlack'
p566
sg7
(lp567
I765
aI247
aI794
aI272
asg9
I0
sa(dp568
g2
I0
sg3
g4
sg5
S'noteheadBlack'
p569
sg7
(lp570
I765
aI292
aI794
aI318
asg9
I0
sa(dp571
g2
I0
sg3
g4
sg5
S'noteheadBlack'
p572
sg7
(lp573
I1094
aI247
aI1123
aI272
asg9
I0
sa(dp574
g2
I0
sg3
g4
sg5
S'noteheadBlack'
p575
sg7
(lp576
I1094
aI304
aI1123
aI329
asg9
I0
sa(dp577
g2
I0
sg3
g4
sg5
S'noteheadBlack'
p578
sg7
(lp579
I1094
aI505
aI1123
aI530
asg9
I0
sa(dp580
g2
I0
sg3
g4
sg5
S'noteheadBlack'
p581
sg7
(lp582
I1172
aI1059
aI1201
aI1084
asg9
I0
sa(dp583
g2
I0
sg3
g4
sg5
S'noteheadBlack'
p584
sg7
(lp585
I1172
aI776
aI1201
aI802
asg9
I0
sa(dp586
g2
I0
sg3
g4
sg5
S'noteheadBlack'
p587
sg7
(lp588
I1172
aI505
aI1201
aI530
asg9
I0
sa(dp589
g2
I0
sg3
g4
sg5
S'dynamicMezzo'
p590
sg7
(lp591
I1163
aI355
aI1204
aI380
asg9
I0
sa(dp592
g2
I0
sg3
g4
sg5
S'rest8th'
p593
sg7
(lp594
I1172
aI229
aI1200
aI272
asg9
I0
sa(dp595
g2
I0
sg3
g4
sg5
S'dynamicMezzo'
p596
sg7
(lp597
I1034
aI906
aI1075
aI931
asg9
I0
sa(dp598
g2
I0
sg3
g4
sg5
S'noteheadBlack'
p599
sg7
(lp600
I1043
aI270
aI1072
aI295
asg9
I0
sa(dp601
g2
I0
sg3
g4
sg5
S'noteheadBlack'
p602
sg7
(lp603
I1043
aI482
aI1072
aI508
asg9
I0
sa(dp604
g2
I0
sg3
g4
sg5
S'noteheadBlack'
p605
sg7
(lp606
I1043
aI799
aI1072
aI824
asg9
I0
sa(dp607
g2
I0
sg3
g4
sg5
S'noteheadBlack'
p608
sg7
(lp609
I1043
aI1059
aI1072
aI1084
asg9
I0
sa(dp610
g2
I0
sg3
g4
sg5
S'noteheadBlack'
p611
sg7
(lp612
I1043
aI1319
aI1072
aI1344
asg9
I0
sa(dp613
g2
I0
sg3
g4
sg5
S'noteheadBlack'
p614
sg7
(lp615
I1863
aI3557
aI1892
aI3582
asg9
I0
sa(dp616
g2
I0
sg3
g4
sg5
S'noteheadBlack'
p617
sg7
(lp618
I1863
aI3195
aI1892
aI3220
asg9
I0
sa(dp619
g2
I0
sg3
g4
sg5
S'noteheadBlack'
p620
sg7
(lp621
I1863
aI2935
aI1892
aI2960
asg9
I0
sa(dp622
g2
I0
sg3
g4
sg5
S'noteheadBlack'
p623
sg7
(lp624
I1796
aI2248
aI1825
aI2274
asg9
I0
sa(dp625
g2
I0
sg3
g4
sg5
S'noteheadBlack'
p626
sg7
(lp627
I1796
aI2203
aI1825
aI2228
asg9
I0
sa(dp628
g2
I0
sg3
g4
sg5
S'noteheadBlack'
p629
sg7
(lp630
I1863
aI2755
aI1892
aI2780
asg9
I0
sa(dp631
g2
I0
sg3
g4
sg5
S'noteheadBlack'
p632
sg7
(lp633
I1863
aI2226
aI1892
aI2251
asg9
I0
sa(dp634
g2
I0
sg3
g4
sg5
S'noteheadBlack'
p635
sg7
(lp636
I1730
aI2912
aI1759
aI2937
asg9
I0
sa(dp637
g2
I0
sg3
g4
sg5
S'rest8th'
p638
sg7
(lp639
I1730
aI2174
aI1758
aI2217
asg9
I0
sa(dp640
g2
I0
sg3
g4
sg5
S'noteheadHalf'
p641
sg7
(lp642
I1730
aI2484
aI1761
aI2509
asg9
I0
sa(dp643
g2
I0
sg3
g4
sg5
S'noteheadHalf'
p644
sg7
(lp645
I1730
aI2461
aI1761
aI2486
asg9
I0
sa(dp646
g2
I0
sg3
g4
sg5
S'noteheadHalf'
p647
sg7
(lp648
I1730
aI2427
aI1761
aI2452
asg9
I0
sa(dp649
g2
I0
sg3
g4
sg5
S'noteheadBlack'
p650
sg7
(lp651
I1730
aI2732
aI1759
aI2758
asg9
I0
sa(dp652
g2
I0
sg3
g4
sg5
S'noteheadBlack'
p653
sg7
(lp654
I1730
aI3172
aI1759
aI3197
asg9
I0
sa(dp655
g2
I0
sg3
g4
sg5
S'noteheadBlack'
p656
sg7
(lp657
I1730
aI3534
aI1759
aI3560
asg9
I0
sa(dp658
g2
I0
sg3
g4
sg5
S'rest8th'
p659
sg7
(lp660
I2026
aI2174
aI2054
aI2217
asg9
I0
sa(dp661
g2
I0
sg3
g4
sg5
S'noteheadHalf'
p662
sg7
(lp663
I2026
aI2473
aI2058
aI2498
asg9
I0
sa(dp664
g2
I0
sg3
g4
sg5
S'noteheadHalf'
p665
sg7
(lp666
I2026
aI2450
aI2058
aI2475
asg9
I0
sa(dp667
g2
I0
sg3
g4
sg5
S'noteheadHalf'
p668
sg7
(lp669
I2026
aI2427
aI2058
aI2452
asg9
I0
sa(dp670
g2
I0
sg3
g4
sg5
S'noteheadHalf'
p671
sg7
(lp672
I2026
aI2393
aI2058
aI2418
asg9
I0
sa(dp673
g2
I0
sg3
g4
sg5
S'noteheadBlack'
p674
sg7
(lp675
I2026
aI2744
aI2055
aI2769
asg9
I0
sa(dp676
g2
I0
sg3
g4
sg5
S'noteheadBlack'
p677
sg7
(lp678
I2026
aI2924
aI2055
aI2949
asg9
I0
sa(dp679
g2
I0
sg3
g4
sg5
S'noteheadBlack'
p680
sg7
(lp681
I2026
aI3183
aI2055
aI3208
asg9
I0
sa(dp682
g2
I0
sg3
g4
sg5
S'noteheadBlack'
p683
sg7
(lp684
I2026
aI3546
aI2055
aI3571
asg9
I0
sa(dp685
g2
I0
sg3
g4
sg5
S'noteheadBlack'
p686
sg7
(lp687
I1930
aI2248
aI1959
aI2274
asg9
I0
sa(dp688
g2
I0
sg3
g4
sg5
S'noteheadBlack'
p689
sg7
(lp690
I1930
aI2203
aI1959
aI2228
asg9
I0
sa(dp691
g2
I0
sg3
g4
sg5
S'noteheadBlack'
p692
sg7
(lp693
I1529
aI2226
aI1558
aI2251
asg9
I0
sa(dp694
g2
I0
sg3
g4
sg5
S'noteheadBlack'
p695
sg7
(lp696
I1529
aI2168
aI1558
aI2194
asg9
I0
sa(dp697
g2
I0
sg3
g4
sg5
S'noteheadBlack'
p698
sg7
(lp699
I1663
aI2226
aI1692
aI2251
asg9
I0
sa(dp700
g2
I0
sg3
g4
sg5
S'noteheadBlack'
p701
sg7
(lp702
I1663
aI2168
aI1692
aI2194
asg9
I0
sa(dp703
g2
I0
sg3
g4
sg5
S'noteheadBlack'
p704
sg7
(lp705
I1663
aI2744
aI1692
aI2769
asg9
I0
sa(dp706
g2
I0
sg3
g4
sg5
S'noteheadBlack'
p707
sg7
(lp708
I1663
aI2924
aI1692
aI2949
asg9
I0
sa(dp709
g2
I0
sg3
g4
sg5
S'noteheadBlack'
p710
sg7
(lp711
I1663
aI3183
aI1692
aI3208
asg9
I0
sa(dp712
g2
I0
sg3
g4
sg5
S'noteheadBlack'
p713
sg7
(lp714
I1663
aI3546
aI1692
aI3571
asg9
I0
sa(dp715
g2
I0
sg3
g4
sg5
S'noteheadBlack'
p716
sg7
(lp717
I1596
aI2203
aI1625
aI2228
asg9
I0
sa(dp718
g2
I0
sg3
g4
sg5
S'noteheadBlack'
p719
sg7
(lp720
I1596
aI2755
aI1625
aI2780
asg9
I0
sa(dp721
g2
I0
sg3
g4
sg5
S'noteheadBlack'
p722
sg7
(lp723
I1596
aI2935
aI1625
aI2960
asg9
I0
sa(dp724
g2
I0
sg3
g4
sg5
S'noteheadBlack'
p725
sg7
(lp726
I1596
aI3195
aI1625
aI3220
asg9
I0
sa(dp727
g2
I0
sg3
g4
sg5
S'noteheadBlack'
p728
sg7
(lp729
I1596
aI3557
aI1625
aI3582
asg9
I0
sa(dp730
g2
I0
sg3
g4
sg5
S'noteheadBlack'
p731
sg7
(lp732
I2434
aI3138
aI2463
aI3163
asg9
I0
sa(dp733
g2
I0
sg3
g4
sg5
S'noteheadBlack'
p734
sg7
(lp735
I2367
aI2271
aI2396
aI2296
asg9
I0
sa(dp736
g2
I0
sg3
g4
sg5
S'noteheadBlack'
p737
sg7
(lp738
I2367
aI2214
aI2396
aI2239
asg9
I0
sa(dp739
g2
I0
sg3
g4
sg5
S'noteheadBlack'
p740
sg7
(lp741
I2434
aI2248
aI2463
aI2274
asg9
I0
sa(dp742
g2
I0
sg3
g4
sg5
S'noteheadBlack'
p743
sg7
(lp744
I2434
aI2698
aI2463
aI2723
asg9
I0
sa(dp745
g2
I0
sg3
g4
sg5
S'noteheadBlack'
p746
sg7
(lp747
I2434
aI2878
aI2463
aI2903
asg9
I0
sa(dp748
g2
I0
sg3
g4
sg5
S'noteheadBlack'
p749
sg7
(lp750
I2434
aI3500
aI2463
aI3525
asg9
I0
sa(dp751
g2
I0
sg3
g4
sg5
S'noteheadHalf'
p752
sg7
(lp753
I2301
aI2450
aI2332
aI2475
asg9
I0
sa(dp754
g2
I0
sg3
g4
sg5
S'noteheadHalf'
p755
sg7
(lp756
I2301
aI2427
aI2332
aI2452
asg9
I0
sa(dp757
g2
I0
sg3
g4
sg5
S'noteheadHalf'
p758
sg7
(lp759
I2301
aI2404
aI2332
aI2429
asg9
I0
sa(dp760
g2
I0
sg3
g4
sg5
S'noteheadBlack'
p761
sg7
(lp762
I2301
aI2732
aI2330
aI2758
asg9
I0
sa(dp763
g2
I0
sg3
g4
sg5
S'noteheadBlack'
p764
sg7
(lp765
I2301
aI2912
aI2330
aI2937
asg9
I0
sa(dp766
g2
I0
sg3
g4
sg5
S'noteheadBlack'
p767
sg7
(lp768
I2301
aI3172
aI2330
aI3197
asg9
I0
sa(dp769
g2
I0
sg3
g4
sg5
S'noteheadBlack'
p770
sg7
(lp771
I2301
aI3534
aI2330
aI3560
asg9
I0
sa(dp772
g2
I0
sg3
g4
sg5
S'noteheadBlack'
p773
sg7
(lp774
I2501
aI2271
aI2530
aI2296
asg9
I0
sa(dp775
g2
I0
sg3
g4
sg5
S'noteheadBlack'
p776
sg7
(lp777
I2501
aI2214
aI2530
aI2239
asg9
I0
sa(dp778
g2
I0
sg3
g4
sg5
S'noteheadHalf'
p779
sg7
(lp780
I2301
aI2473
aI2332
aI2498
asg9
I0
sa(dp781
g2
I0
sg3
g4
sg5
S'noteheadBlack'
p782
sg7
(lp783
I2092
aI2248
aI2121
aI2274
asg9
I0
sa(dp784
g2
I0
sg3
g4
sg5
S'noteheadBlack'
p785
sg7
(lp786
I2092
aI2191
aI2121
aI2217
asg9
I0
sa(dp787
g2
I0
sg3
g4
sg5
S'noteheadBlack'
p788
sg7
(lp789
I2159
aI2214
aI2188
aI2239
asg9
I0
sa(dp790
g2
I0
sg3
g4
sg5
S'noteheadBlack'
p791
sg7
(lp792
I2159
aI2778
aI2188
aI2803
asg9
I0
sa(dp793
g2
I0
sg3
g4
sg5
S'noteheadBlack'
p794
sg7
(lp795
I2159
aI2958
aI2188
aI2983
asg9
I0
sa(dp796
g2
I0
sg3
g4
sg5
S'noteheadBlack'
p797
sg7
(lp798
I2159
aI3218
aI2188
aI3243
asg9
I0
sa(dp799
g2
I0
sg3
g4
sg5
S'noteheadBlack'
p800
sg7
(lp801
I2159
aI3580
aI2188
aI3605
asg9
I0
sa(dp802
g2
I0
sg3
g4
sg5
S'noteheadBlack'
p803
sg7
(lp804
I2231
aI3557
aI2260
aI3582
asg9
I0
sa(dp805
g2
I0
sg3
g4
sg5
S'rest8th'
p806
sg7
(lp807
I2301
aI2174
aI2329
aI2217
asg9
I0
sa(dp808
g2
I0
sg3
g4
sg5
S'noteheadBlack'
p809
sg7
(lp810
I2231
aI2248
aI2260
aI2274
asg9
I0
sa(dp811
g2
I0
sg3
g4
sg5
S'noteheadBlack'
p812
sg7
(lp813
I2231
aI2191
aI2260
aI2217
asg9
I0
sa(dp814
g2
I0
sg3
g4
sg5
S'noteheadBlack'
p815
sg7
(lp816
I2231
aI2755
aI2260
aI2780
asg9
I0
sa(dp817
g2
I0
sg3
g4
sg5
S'noteheadBlack'
p818
sg7
(lp819
I2231
aI2935
aI2260
aI2960
asg9
I0
sa(dp820
g2
I0
sg3
g4
sg5
S'noteheadBlack'
p821
sg7
(lp822
I2231
aI3195
aI2260
aI3220
asg9
I0
sa(dp823
g2
I0
sg3
g4
sg5
S'noteheadBlack'
p824
sg7
(lp825
I619
aI2226
aI647
aI2251
asg9
I0
sa(dp826
g2
I0
sg3
g4
sg5
S'noteheadBlack'
p827
sg7
(lp828
I691
aI2203
aI720
aI2228
asg9
I0
sa(dp829
g2
I0
sg3
g4
sg5
S'noteheadBlack'
p830
sg7
(lp831
I691
aI2755
aI720
aI2780
asg9
I0
sa(dp832
g2
I0
sg3
g4
sg5
S'noteheadBlack'
p833
sg7
(lp834
I691
aI2992
aI720
aI3017
asg9
I0
sa(dp835
g2
I0
sg3
g4
sg5
S'noteheadBlack'
p836
sg7
(lp837
I691
aI3218
aI720
aI3243
asg9
I0
sa(dp838
g2
I0
sg3
g4
sg5
S'noteheadBlack'
p839
sg7
(lp840
I691
aI3512
aI720
aI3537
asg9
I0
sa(dp841
g2
I0
sg3
g4
sg5
S'noteheadBlack'
p842
sg7
(lp843
I546
aI3534
aI575
aI3560
asg9
I0
sa(dp844
g2
I0
sg3
g4
sg5
S'noteheadBlack'
p845
sg7
(lp846
I476
aI2271
aI505
aI2296
asg9
I0
sa(dp847
g2
I0
sg3
g4
sg5
S'noteheadBlack'
p848
sg7
(lp849
I546
aI2248
aI575
aI2274
asg9
I0
sa(dp850
g2
I0
sg3
g4
sg5
S'restHalf'
p851
sg7
(lp852
I546
aI2461
aI575
aI2474
asg9
I0
sa(dp853
g2
I0
sg3
g4
sg5
S'noteheadBlack'
p854
sg7
(lp855
I546
aI2732
aI575
aI2758
asg9
I0
sa(dp856
g2
I0
sg3
g4
sg5
S'noteheadBlack'
p857
sg7
(lp858
I546
aI3015
aI575
aI3040
asg9
I0
sa(dp859
g2
I0
sg3
g4
sg5
S'noteheadBlack'
p860
sg7
(lp861
I546
aI3252
aI575
aI3277
asg9
I0
sa(dp862
g2
I0
sg3
g4
sg5
S'noteheadBlack'
p863
sg7
(lp864
I859
aI3523
aI888
aI3548
asg9
I0
sa(dp865
g2
I0
sg3
g4
sg5
S'dynamicMezzo'
p866
sg7
(lp867
I850
aI3348
aI891
aI3374
asg9
I0
sa(dp868
g2
I0
sg3
g4
sg5
S'noteheadBlack'
p869
sg7
(lp870
I764
aI2168
aI793
aI2194
asg9
I0
sa(dp871
g2
I0
sg3
g4
sg5
S'rest8th'
p872
sg7
(lp873
I859
aI2174
aI886
aI2217
asg9
I0
sa(dp874
g2
I0
sg3
g4
sg5
S'dynamicMezzo'
p875
sg7
(lp876
I850
aI2299
aI891
aI2325
asg9
I0
sa(dp877
g2
I0
sg3
g4
sg5
S'noteheadBlack'
p878
sg7
(lp879
I859
aI2450
aI888
aI2475
asg9
I0
sa(dp880
g2
I0
sg3
g4
sg5
S'noteheadBlack'
p881
sg7
(lp882
I859
aI2721
aI888
aI2746
asg9
I0
sa(dp883
g2
I0
sg3
g4
sg5
S'noteheadBlack'
p884
sg7
(lp885
I859
aI2901
aI888
aI2926
asg9
I0
sa(dp886
g2
I0
sg3
g4
sg5
S'dynamicMezzo'
p887
sg7
(lp888
I850
aI3089
aI891
aI3114
asg9
I0
sa(dp889
g2
I0
sg3
g4
sg5
S'noteheadBlack'
p890
sg7
(lp891
I859
aI3160
aI888
aI3186
asg9
I0
sa(dp892
g2
I0
sg3
g4
sg5
S'gClef'
p893
sg7
(lp894
I151
aI2676
aI213
aI2849
asg9
I0
sa(dp895
g2
I0
sg3
g4
sg5
S'gClef'
p896
sg7
(lp897
I151
aI2936
aI213
aI3109
asg9
I0
sa(dp898
g2
I0
sg3
g4
sg5
S'gClef'
p899
sg7
(lp900
I151
aI3195
aI213
aI3368
asg9
I0
sa(dp901
g2
I0
sg3
g4
sg5
S'clef8'
p902
sg7
(lp903
I165
aI3370
aI197
aI3392
asg9
I0
sa(dp904
g2
I0
sg3
g4
sg5
S'fClef'
p905
sg7
(lp906
I147
aI3500
aI212
aI3579
asg9
I0
sa(dp907
g2
I0
sg3
g4
sg5
S'noteheadBlack'
p908
sg7
(lp909
I264
aI2191
aI293
aI2217
asg9
I0
sa(dp910
g2
I0
sg3
g4
sg5
S'noteheadBlack'
p911
sg7
(lp912
I264
aI2461
aI293
aI2486
asg9
I0
sa(dp913
g2
I0
sg3
g4
sg5
S'noteheadBlack'
p914
sg7
(lp915
I264
aI2778
aI293
aI2803
asg9
I0
sa(dp916
g2
I0
sg3
g4
sg5
S'noteheadBlack'
p917
sg7
(lp918
I264
aI3072
aI293
aI3097
asg9
I0
sa(dp919
g2
I0
sg3
g4
sg5
S'noteheadBlack'
p920
sg7
(lp921
I264
aI3297
aI293
aI3323
asg9
I0
sa(dp922
g2
I0
sg3
g4
sg5
S'noteheadBlack'
p923
sg7
(lp924
I264
aI3580
aI293
aI3605
asg9
I0
sa(dp925
g2
I0
sg3
g4
sg5
S'brace'
p926
sg7
(lp927
I101
aI2193
aI122
aI2519
asg9
I0
sa(dp928
g2
I0
sg3
g4
sg5
S'gClef'
p929
sg7
(lp930
I151
aI2146
aI213
aI2319
asg9
I0
sa(dp931
g2
I0
sg3
g4
sg5
S'fClef'
p932
sg7
(lp933
I147
aI2427
aI212
aI2506
asg9
I0
sa(dp934
g2
I0
sg3
g4
sg5
S'noteheadBlack'
p935
sg7
(lp936
I404
aI2305
aI433
aI2331
asg9
I0
sa(dp937
g2
I0
sg3
g4
sg5
S'restQuarter'
p938
sg7
(lp939
I402
aI2434
aI425
aI2503
asg9
I0
sa(dp940
g2
I0
sg3
g4
sg5
S'noteheadBlack'
p941
sg7
(lp942
I404
aI2755
aI433
aI2780
asg9
I0
sa(dp943
g2
I0
sg3
g4
sg5
S'noteheadBlack'
p944
sg7
(lp945
I404
aI3038
aI433
aI3063
asg9
I0
sa(dp946
g2
I0
sg3
g4
sg5
S'noteheadBlack'
p947
sg7
(lp948
I404
aI3275
aI433
aI3300
asg9
I0
sa(dp949
g2
I0
sg3
g4
sg5
S'noteheadBlack'
p950
sg7
(lp951
I404
aI3557
aI433
aI3582
asg9
I0
sa(dp952
g2
I0
sg3
g4
sg5
S'noteheadBlack'
p953
sg7
(lp954
I337
aI2427
aI365
aI2452
asg9
I0
sa(dp955
g2
I0
sg3
g4
sg5
S'noteheadBlack'
p956
sg7
(lp957
I1228
aI2237
aI1257
aI2262
asg9
I0
sa(dp958
g2
I0
sg3
g4
sg5
S'noteheadBlack'
p959
sg7
(lp960
I1228
aI2191
aI1257
aI2217
asg9
I0
sa(dp961
g2
I0
sg3
g4
sg5
S'noteheadBlack'
p962
sg7
(lp963
I1228
aI2473
aI1257
aI2498
asg9
I0
sa(dp964
g2
I0
sg3
g4
sg5
S'rest8th'
p965
sg7
(lp966
I1159
aI2174
aI1187
aI2217
asg9
I0
sa(dp967
g2
I0
sg3
g4
sg5
S'noteheadBlack'
p968
sg7
(lp969
I1159
aI2495
aI1188
aI2521
asg9
I0
sa(dp970
g2
I0
sg3
g4
sg5
S'noteheadBlack'
p971
sg7
(lp972
I1159
aI2721
aI1188
aI2746
asg9
I0
sa(dp973
g2
I0
sg3
g4
sg5
S'noteheadBlack'
p974
sg7
(lp975
I1159
aI2901
aI1188
aI2926
asg9
I0
sa(dp976
g2
I0
sg3
g4
sg5
S'noteheadBlack'
p977
sg7
(lp978
I1159
aI3160
aI1188
aI3186
asg9
I0
sa(dp979
g2
I0
sg3
g4
sg5
S'noteheadBlack'
p980
sg7
(lp981
I1159
aI3523
aI1188
aI3548
asg9
I0
sa(dp982
g2
I0
sg3
g4
sg5
S'noteheadBlack'
p983
sg7
(lp984
I1368
aI2237
aI1397
aI2262
asg9
I0
sa(dp985
g2
I0
sg3
g4
sg5
S'noteheadBlack'
p986
sg7
(lp987
I1368
aI2191
aI1397
aI2217
asg9
I0
sa(dp988
g2
I0
sg3
g4
sg5
S'noteheadBlack'
p989
sg7
(lp990
I1368
aI2415
aI1397
aI2441
asg9
I0
sa(dp991
g2
I0
sg3
g4
sg5
S'rest8th'
p992
sg7
(lp993
I1463
aI2174
aI1491
aI2217
asg9
I0
sa(dp994
g2
I0
sg3
g4
sg5
S'noteheadHalf'
p995
sg7
(lp996
I1463
aI2484
aI1494
aI2509
asg9
I0
sa(dp997
g2
I0
sg3
g4
sg5
S'noteheadHalf'
p998
sg7
(lp999
I1463
aI2461
aI1494
aI2486
asg9
I0
sa(dp1000
g2
I0
sg3
g4
sg5
S'noteheadHalf'
p1001
sg7
(lp1002
I1463
aI2427
aI1494
aI2452
asg9
I0
sa(dp1003
g2
I0
sg3
g4
sg5
S'noteheadBlack'
p1004
sg7
(lp1005
I1463
aI2732
aI1492
aI2758
asg9
I0
sa(dp1006
g2
I0
sg3
g4
sg5
S'noteheadBlack'
p1007
sg7
(lp1008
I1463
aI2912
aI1492
aI2937
asg9
I0
sa(dp1009
g2
I0
sg3
g4
sg5
S'noteheadBlack'
p1010
sg7
(lp1011
I1463
aI3172
aI1492
aI3197
asg9
I0
sa(dp1012
g2
I0
sg3
g4
sg5
S'noteheadBlack'
p1013
sg7
(lp1014
I1463
aI3534
aI1492
aI3560
asg9
I0
sa(dp1015
g2
I0
sg3
g4
sg5
S'noteheadBlack'
p1016
sg7
(lp1017
I1298
aI2214
aI1327
aI2239
asg9
I0
sa(dp1018
g2
I0
sg3
g4
sg5
S'noteheadBlack'
p1019
sg7
(lp1020
I1298
aI2450
aI1327
aI2475
asg9
I0
sa(dp1021
g2
I0
sg3
g4
sg5
S'noteheadBlack'
p1022
sg7
(lp1023
I1298
aI2744
aI1327
aI2769
asg9
I0
sa(dp1024
g2
I0
sg3
g4
sg5
S'noteheadBlack'
p1025
sg7
(lp1026
I1298
aI2924
aI1327
aI2949
asg9
I0
sa(dp1027
g2
I0
sg3
g4
sg5
S'noteheadBlack'
p1028
sg7
(lp1029
I1298
aI3183
aI1327
aI3208
asg9
I0
sa(dp1030
g2
I0
sg3
g4
sg5
S'noteheadBlack'
p1031
sg7
(lp1032
I1298
aI3546
aI1327
aI3571
asg9
I0
sa(dp1033
g2
I0
sg3
g4
sg5
S'noteheadBlack'
p1034
sg7
(lp1035
I1006
aI3183
aI1035
aI3208
asg9
I0
sa(dp1036
g2
I0
sg3
g4
sg5
S'accidentalSharp'
p1037
sg7
(lp1038
I906
aI2227
aI931
aI2295
asg9
I0
sa(dp1039
g2
I0
sg3
g4
sg5
S'noteheadBlack'
p1040
sg7
(lp1041
I1006
aI2214
aI1035
aI2239
asg9
I0
sa(dp1042
g2
I0
sg3
g4
sg5
S'noteheadBlack'
p1043
sg7
(lp1044
I1006
aI2473
aI1035
aI2498
asg9
I0
sa(dp1045
g2
I0
sg3
g4
sg5
S'noteheadBlack'
p1046
sg7
(lp1047
I1006
aI2744
aI1035
aI2769
asg9
I0
sa(dp1048
g2
I0
sg3
g4
sg5
S'noteheadBlack'
p1049
sg7
(lp1050
I1006
aI2924
aI1035
aI2949
asg9
I0
sa(dp1051
g2
I0
sg3
g4
sg5
S'noteheadBlack'
p1052
sg7
(lp1053
I1006
aI3546
aI1035
aI3571
asg9
I0
sa(dp1054
g2
I0
sg3
g4
sg5
S'noteheadBlack'
p1055
sg7
(lp1056
I939
aI2248
aI967
aI2274
asg9
I0
sa(dp1057
g2
I0
sg3
g4
sg5
S'noteheadBlack'
p1058
sg7
(lp1059
I939
aI2191
aI967
aI2217
asg9
I0
sa(dp1060
g2
I0
sg3
g4
sg5
S'noteheadBlack'
p1061
sg7
(lp1062
I939
aI2461
aI967
aI2486
asg9
I0
sa(dp1063
g2
I0
sg3
g4
sg5
S'noteheadBlack'
p1064
sg7
(lp1065
I1092
aI3534
aI1121
aI3560
asg9
I0
sa(dp1066
g2
I0
sg3
g4
sg5
S'noteheadBlack'
p1067
sg7
(lp1068
I1092
aI2248
aI1121
aI2274
asg9
I0
sa(dp1069
g2
I0
sg3
g4
sg5
S'noteheadBlack'
p1070
sg7
(lp1071
I1092
aI2191
aI1121
aI2217
asg9
I0
sa(dp1072
g2
I0
sg3
g4
sg5
S'noteheadBlack'
p1073
sg7
(lp1074
I1092
aI2507
aI1121
aI2532
asg9
I0
sa(dp1075
g2
I0
sg3
g4
sg5
S'noteheadBlack'
p1076
sg7
(lp1077
I1092
aI3172
aI1121
aI3197
asg9
I0
sa(dp1078
g2
I0
sg3
g4
sg5
S'noteheadBlack'
p1079
sg7
(lp1080
I1092
aI2732
aI1121
aI2758
asg9
I0
sa(dp1081
g2
I0
sg3
g4
sg5
S'noteheadBlack'
p1082
sg7
(lp1083
I1092
aI2912
aI1121
aI2937
asg9
I0
sa(dp1084
g2
I0
sg3
g4
sg5
S'accidentalSharp'
p1085
sg7
(lp1086
I1059
aI2485
aI1084
aI2553
asg9
I0
sa.